--- !tapi-tbd-v3
archs:		[ arm64 ]
uuids:		['arm64: DF8BBE4E-027F-3DD1-AA83-A3E79594FD90' ]
platform:	ios
install-name:  /System/Library/PrivateFrameworks/VectorKit.framework/VectorKit
objc-constraint:	none
exports:
  - archs:	[ arm64 ]
    symbols:          [  _GEOMapRectEnclosingCameraProperties, _GEOPDCameraPathFrameFromVKCameraFrame, _OBJC_CLASS_$_MIController, _OBJC_CLASS_$_VKAlternateRouteInfo, _OBJC_CLASS_$_VKAnchorWrapper, _OBJC_CLASS_$_VKAnimation, _OBJC_CLASS_$_VKClientLocalizedStrings, _OBJC_CLASS_$_VKCompoundAnimation, _OBJC_CLASS_$_VKCustomFeature, _OBJC_CLASS_$_VKDebugSettings, _OBJC_CLASS_$_VKDebugTree, _OBJC_CLASS_$_VKDynamicAnimation, _OBJC_CLASS_$_VKFeatureMarker, _OBJC_CLASS_$_VKIconInfo, _OBJC_CLASS_$_VKIconManager, _OBJC_CLASS_$_VKImage, _OBJC_CLASS_$_VKImageSourceKey, _OBJC_CLASS_$_VKLabelMarker, _OBJC_CLASS_$_VKLabelMarkerFeatureHandle, _OBJC_CLASS_$_VKLabelMarkerShield, _OBJC_CLASS_$_VKMapSnapshot, _OBJC_CLASS_$_VKMapSnapshotCreator, _OBJC_CLASS_$_VKMapSnapshotRequest, _OBJC_CLASS_$_VKMapView, _OBJC_CLASS_$_VKNavContext, _OBJC_CLASS_$_VKNavigationPuck, _OBJC_CLASS_$_VKObjectBoundsContext, _OBJC_CLASS_$_VKPlatform, _OBJC_CLASS_$_VKPolylineGroupOverlay, _OBJC_CLASS_$_VKPolylineOverlay, _OBJC_CLASS_$_VKPuckAnimator, _OBJC_CLASS_$_VKRasterOverlay, _OBJC_CLASS_$_VKResourceManager, _OBJC_CLASS_$_VKRouteContext, _OBJC_CLASS_$_VKRouteEtaDescription, _OBJC_CLASS_$_VKRouteInfo, _OBJC_CLASS_$_VKSceneConfiguration, _OBJC_CLASS_$_VKShieldArtwork, _OBJC_CLASS_$_VKShieldImage, _OBJC_CLASS_$_VKShieldManager, _OBJC_CLASS_$_VKTimedAnimation, _OBJC_CLASS_$_VKTimer, _OBJC_CLASS_$_VKTrafficCameraFeature, _OBJC_CLASS_$_VKTrafficFeature, _OBJC_CLASS_$_VKTrafficIncidentFeature, _OBJC_CLASS_$_VKTransitLineMarker, _OBJC_CLASS_$_VKVenueBuildingFeatureMarker, _OBJC_CLASS_$_VKVenueFeatureMarker, _OBJC_CLASS_$_VKViewportInfo, _OBJC_IVAR_$_VKAnimation._completionHandler, _OBJC_IVAR_$_VKAnimation._frequency, _OBJC_IVAR_$_VKAnimation._name, _OBJC_IVAR_$_VKAnimation._priority, _OBJC_IVAR_$_VKAnimation._runner, _OBJC_IVAR_$_VKAnimation._runsForever, _OBJC_IVAR_$_VKAnimation._state, _OBJC_IVAR_$_VKCompoundAnimation._animations, _OBJC_IVAR_$_VKCompoundAnimation._groupStepHandler, _OBJC_IVAR_$_VKDynamicAnimation._dynamicStepHandler, _OBJC_IVAR_$_VKDynamicAnimation._lastTimestamp, _OBJC_IVAR_$_VKDynamicAnimation._resuming, _OBJC_IVAR_$_VKMapSnapshotCreator._completion, _OBJC_IVAR_$_VKMapSnapshotCreator._didBecomeFullyDrawn, _OBJC_IVAR_$_VKMapSnapshotCreator._globeCanvas, _OBJC_IVAR_$_VKMapSnapshotCreator._hasFailedTiles, _OBJC_IVAR_$_VKMapSnapshotCreator._mapCanvas, _OBJC_IVAR_$_VKMapSnapshotCreator._mapDisplayStyle, _OBJC_IVAR_$_VKMapSnapshotCreator._mapType, _OBJC_IVAR_$_VKPlatform._isMac, _OBJC_IVAR_$_VKPlatform._memSize, _OBJC_IVAR_$_VKPlatform._numCPUs, _OBJC_IVAR_$_VKRasterOverlay._delegate, _OBJC_IVAR_$_VKRasterOverlay._level, _OBJC_IVAR_$_VKRasterOverlay._mapModel, _OBJC_IVAR_$_VKRasterOverlay._replaceMapContentInRect, _OBJC_IVAR_$_VKTimedAnimation._duration, _OBJC_IVAR_$_VKTimedAnimation._lastTimestamp, _OBJC_IVAR_$_VKTimedAnimation._resuming, _OBJC_IVAR_$_VKTimedAnimation._startTimestamp, _OBJC_IVAR_$_VKTimedAnimation._startTimestampSet, _OBJC_IVAR_$_VKTimedAnimation._stepHandler, _OBJC_IVAR_$_VKTimedAnimation._timingFunction, _OBJC_METACLASS_$_MIController, _OBJC_METACLASS_$_VKAlternateRouteInfo, _OBJC_METACLASS_$_VKAnchorWrapper, _OBJC_METACLASS_$_VKAnimation, _OBJC_METACLASS_$_VKClientLocalizedStrings, _OBJC_METACLASS_$_VKCompoundAnimation, _OBJC_METACLASS_$_VKCustomFeature, _OBJC_METACLASS_$_VKDebugSettings, _OBJC_METACLASS_$_VKDebugTree, _OBJC_METACLASS_$_VKDynamicAnimation, _OBJC_METACLASS_$_VKFeatureMarker, _OBJC_METACLASS_$_VKIconInfo, _OBJC_METACLASS_$_VKIconManager, _OBJC_METACLASS_$_VKImage, _OBJC_METACLASS_$_VKImageSourceKey, _OBJC_METACLASS_$_VKLabelMarker, _OBJC_METACLASS_$_VKLabelMarkerFeatureHandle, _OBJC_METACLASS_$_VKLabelMarkerShield, _OBJC_METACLASS_$_VKMapSnapshot, _OBJC_METACLASS_$_VKMapSnapshotCreator, _OBJC_METACLASS_$_VKMapSnapshotRequest, _OBJC_METACLASS_$_VKMapView, _OBJC_METACLASS_$_VKNavContext, _OBJC_METACLASS_$_VKNavigationPuck, _OBJC_METACLASS_$_VKObjectBoundsContext, _OBJC_METACLASS_$_VKPlatform, _OBJC_METACLASS_$_VKPolylineGroupOverlay, _OBJC_METACLASS_$_VKPolylineOverlay, _OBJC_METACLASS_$_VKPuckAnimator, _OBJC_METACLASS_$_VKRasterOverlay, _OBJC_METACLASS_$_VKResourceManager, _OBJC_METACLASS_$_VKRouteContext, _OBJC_METACLASS_$_VKRouteEtaDescription, _OBJC_METACLASS_$_VKRouteInfo, _OBJC_METACLASS_$_VKSceneConfiguration, _OBJC_METACLASS_$_VKShieldArtwork, _OBJC_METACLASS_$_VKShieldImage, _OBJC_METACLASS_$_VKShieldManager, _OBJC_METACLASS_$_VKTimedAnimation, _OBJC_METACLASS_$_VKTimer, _OBJC_METACLASS_$_VKTrafficCameraFeature, _OBJC_METACLASS_$_VKTrafficFeature, _OBJC_METACLASS_$_VKTrafficIncidentFeature, _OBJC_METACLASS_$_VKTransitLineMarker, _OBJC_METACLASS_$_VKVenueBuildingFeatureMarker, _OBJC_METACLASS_$_VKVenueFeatureMarker, _OBJC_METACLASS_$_VKViewportInfo, _VKAnimationCurveDefaultCameraSpring, _VKAnimationCurveDefaultSpring, _VKAnimationCurveEaseIn, _VKAnimationCurveEaseInOut, _VKAnimationCurveEaseOut, _VKAnimationCurveExponentialEaseIn, _VKAnimationCurveExponentialEaseInOut, _VKAnimationCurveExponentialEaseOut, _VKAnimationCurveLinear, _VKAnimationCurveSpring, _VKCameraFrameFromGEOPDCameraPathFrame, _VKCameraPropertiesForRect, _VKDisablePerformanceHUD, _VKEnablePerformanceHUD, _VKExpandedPerformanceHUD, _VKLineDrawWithOuterStroke, _VKLocationCoordinate2DForVKPoint, _VKLocationCoordinate2DIsValid, _VKLocationCoordinate2DMake, _VKLocationCoordinate3DMake, _VKLockScreenLog, _VKMapDisplayStyleDay, _VKMapDisplayStyleNight, _VKMapDisplayStyleRoute, _VKMapDisplayStyleTransit, _VKMapDisplayStyleTransitRoute, _VKMapViewDidBecomeFullyDrawnNotification, _VKMapViewDidBecomePartiallyDrawnNotification, _VKMinimalPerformanceHUD, _VKPerfDiagGetNameForRoadClass, _VKPerfDiagGetNumberOfRoadClasses, _VKPerfDoPostLoadSingleTileTestSetup, _VKPerfDoSingleTileTestSetup, _VKPerfGetDecodeStats, _VKPerfSetSingleTileNameAndReset, _VKPointForVKLocationCoordinate2D, _VKPounceDidEndNotification, _VKPounceWillStartNotification, _VKRectContainsPoint, _VKShieldColorsFromHexString, _VKShieldSizeToString, _VKShouldFlushTileCachesNotification, _VKTrafficIncidentSetSubtitleBlock, _VKTrafficIncidentSetTitleBlock, _VKWorldBoundsFromGEOTileKey, __ZN2md13DebugTreeNode10identifierEv, __ZN2md13DebugTreeNode11addPropertyENSt3__110shared_ptrINS_17DebugTreePropertyEEE, __ZN2md13DebugTreeNode11addPropertyENSt3__112basic_stringIcNS1_11char_traitsIcEENS1_9allocatorIcEEEENS1_6vectorINS_14DebugTreeValueENS5_IS9_EEEE, __ZN2md13DebugTreeNode11addPropertyENSt3__112basic_stringIcNS1_11char_traitsIcEENS1_9allocatorIcEEEENS1_6vectorINS_14DebugTreeValueENS5_IS9_EEEENS8_IS7_NS5_IS7_EEEE, __ZN2md13DebugTreeNode11addPropertyENSt3__112basic_stringIcNS1_11char_traitsIcEENS1_9allocatorIcEEEENS1_6vectorINS_14DebugTreeValueENS5_IS9_EEEES7_, __ZN2md13DebugTreeNode11addPropertyENSt3__112basic_stringIcNS1_11char_traitsIcEENS1_9allocatorIcEEEENS_14DebugTreeValueE, __ZN2md13DebugTreeNode11addPropertyENSt3__112basic_stringIcNS1_11char_traitsIcEENS1_9allocatorIcEEEENS_14DebugTreeValueENS1_6vectorIS7_NS5_IS7_EEEE, __ZN2md13DebugTreeNode11addPropertyENSt3__112basic_stringIcNS1_11char_traitsIcEENS1_9allocatorIcEEEENS_14DebugTreeValueES7_, __ZN2md13DebugTreeNode11addPropertyENSt3__112basic_stringIcNS1_11char_traitsIcEENS1_9allocatorIcEEEENS_17DebugTreeProperty14VisualizerTypeENS1_6vectorINS_14DebugTreeValueENS5_ISB_EEEE, __ZN2md13DebugTreeNode11addPropertyENSt3__112basic_stringIcNS1_11char_traitsIcEENS1_9allocatorIcEEEENS_17DebugTreeProperty14VisualizerTypeENS1_6vectorINS_14DebugTreeValueENS5_ISB_EEEENSA_IS7_NS5_IS7_EEEE, __ZN2md13DebugTreeNode11addPropertyENSt3__112basic_stringIcNS1_11char_traitsIcEENS1_9allocatorIcEEEENS_17DebugTreeProperty14VisualizerTypeENS1_6vectorINS_14DebugTreeValueENS5_ISB_EEEES7_, __ZN2md13DebugTreeNode11addPropertyENSt3__112basic_stringIcNS1_11char_traitsIcEENS1_9allocatorIcEEEENS_17DebugTreeProperty14VisualizerTypeENS_14DebugTreeValueE, __ZN2md13DebugTreeNode11addPropertyENSt3__112basic_stringIcNS1_11char_traitsIcEENS1_9allocatorIcEEEENS_17DebugTreeProperty14VisualizerTypeENS_14DebugTreeValueENS1_6vectorIS7_NS5_IS7_EEEE, __ZN2md13DebugTreeNode11addPropertyENSt3__112basic_stringIcNS1_11char_traitsIcEENS1_9allocatorIcEEEENS_17DebugTreeProperty14VisualizerTypeENS_14DebugTreeValueES7_, __ZN2md13DebugTreeNode12findRootNodeEv, __ZN2md13DebugTreeNode15createChildNodeENSt3__112basic_stringIcNS1_11char_traitsIcEENS1_9allocatorIcEEEE, __ZN2md13DebugTreeNode15createChildNodeENSt3__112basic_stringIcNS1_11char_traitsIcEENS1_9allocatorIcEEEES7_, __ZN2md13DebugTreeNode15deserializeNodeEP11objc_objecti, __ZN2md13DebugTreeNode18isIdentifierUniqueEv, __ZN2md13DebugTreeNode20isPropertyNameUniqueENSt3__112basic_stringIcNS1_11char_traitsIcEENS1_9allocatorIcEEEE, __ZN2md13DebugTreeNode8addChildENSt3__110shared_ptrIS0_EE, __ZN2md13DebugTreeNodeC1ENSt3__112basic_stringIcNS1_11char_traitsIcEENS1_9allocatorIcEEEE, __ZN2md13DebugTreeNodeC1ENSt3__112basic_stringIcNS1_11char_traitsIcEENS1_9allocatorIcEEEES7_, __ZN2md13DebugTreeNodeC2ENSt3__112basic_stringIcNS1_11char_traitsIcEENS1_9allocatorIcEEEE, __ZN2md13DebugTreeNodeC2ENSt3__112basic_stringIcNS1_11char_traitsIcEENS1_9allocatorIcEEEES7_, __ZN2md14DebugTreeValue16deserializeValueEP11objc_objecti, __ZN2md14DebugTreeValueC1ENSt3__112basic_stringIcNS1_11char_traitsIcEENS1_9allocatorIcEEEE, __ZN2md14DebugTreeValueC1EP8NSString, __ZN2md14DebugTreeValueC1Eb, __ZN2md14DebugTreeValueC1Ed, __ZN2md14DebugTreeValueC1Ef, __ZN2md14DebugTreeValueC1Ex, __ZN2md14DebugTreeValueC1Ey, __ZN2md14DebugTreeValueC2ENSt3__112basic_stringIcNS1_11char_traitsIcEENS1_9allocatorIcEEEE, __ZN2md14DebugTreeValueC2EP8NSString, __ZN2md14DebugTreeValueC2Eb, __ZN2md14DebugTreeValueC2Ed, __ZN2md14DebugTreeValueC2Ef, __ZN2md14DebugTreeValueC2Ex, __ZN2md14DebugTreeValueC2Ey, __ZN2md17DebugTreeProperty19deserializePropertyEP11objc_objecti, __ZN2md17DebugTreeProperty6addTagENSt3__112basic_stringIcNS1_11char_traitsIcEENS1_9allocatorIcEEEE, __ZN2md17DebugTreeProperty8addValueENS_14DebugTreeValueE, __ZN2md17DebugTreePropertyC1ENSt3__112basic_stringIcNS1_11char_traitsIcEENS1_9allocatorIcEEEENS0_14VisualizerTypeE, __ZN2md17DebugTreePropertyC2ENSt3__112basic_stringIcNS1_11char_traitsIcEENS1_9allocatorIcEEEENS0_14VisualizerTypeE, __ZN2md9DebugTree10deactivateEv, __ZN2md9DebugTree12populateDataEv, __ZN2md9DebugTree15deserializeTreeEP11objc_object, __ZN2md9DebugTree8activateEP9VKMapView, __ZN2md9DebugTree9setOptionENS0_7OptionsEb, __ZN2md9DebugTreeC1Ev, __ZN2md9DebugTreeC2Ev, __ZNK2md13DebugTreeNode13serializeNodeEv, __ZNK2md13DebugTreeNode17findChildWithNameERKNSt3__112basic_stringIcNS1_11char_traitsIcEENS1_9allocatorIcEEEE, __ZNK2md13DebugTreeNode20findPropertyWithNameERKNSt3__112basic_stringIcNS1_11char_traitsIcEENS1_9allocatorIcEEEE, __ZNK2md13DebugTreeNode7logNodeEP15NSMutableString, __ZNK2md13DebugTreeNode9printNodeEv, __ZNK2md14DebugTreeValue10printValueEv, __ZNK2md14DebugTreeValue12doubleNumberEv, __ZNK2md14DebugTreeValue14serializeValueEv, __ZNK2md14DebugTreeValue14unsignedNumberEv, __ZNK2md14DebugTreeValue6numberEv, __ZNK2md14DebugTreeValue6stringEv, __ZNK2md14DebugTreeValue7booleanEv, __ZNK2md14DebugTreeValue8logValueEP15NSMutableString, __ZNK2md17DebugTreeProperty11logPropertyEP15NSMutableString, __ZNK2md17DebugTreeProperty12valueAtIndexEm, __ZNK2md17DebugTreeProperty13printPropertyEv, __ZNK2md17DebugTreeProperty17serializePropertyEv, __ZNK2md9DebugTree13serializeTreeEv, __ZNK2md9DebugTree16findNodeWithNameERKNSt3__112basic_stringIcNS1_11char_traitsIcEENS1_9allocatorIcEEEE, __ZNK2md9DebugTree7logTreeEv, __ZNK2md9DebugTree9printTreeEv, _dynamicValueAnimation, _kVKOuterStrokeWidthAttributeName ]
...
