--- !tapi-tbd-v3
archs:		[ arm64 ]
uuids:		['arm64: 1BF61D09-ED42-3DF7-A7C6-E7CC0B811851' ]
platform:	ios
install-name:  /usr/lib/updaters/libSERestoreInfo.dylib
objc-constraint:	none
exports:
  - archs:	[ arm64 ]
    symbols:          [  _DEREncoderAddBoolean, _DEREncoderAddData, _DEREncoderAddDataFromEncoder, _DEREncoderAddIA5String, _DEREncoderAddInt32AsData, _DEREncoderAddInt64AsData, _DEREncoderAddPrivateFromEncoder, _DEREncoderAddSequenceFromEncoder, _DEREncoderAddSetFromEncoder, _DEREncoderAddUInt32, _DEREncoderAddUInt64, _DEREncoderCreate, _DEREncoderCreateEncodedBuffer, _DEREncoderDestroy, _SEUpdaterCopyFirmware, _SEUpdaterCopyFirmwareLogSink, _SEUpdaterCreateRequest, _SEUpdaterCreateRequestLogSink, _SEUpdaterGetTags, _SEUpdaterGetTagsLogSink, __Z23DEREncodeItemIntoVectorymPKvRNSt3__16vectorIhNS1_9allocatorIhEEEE, __Z27DEREncodeSequenceIntoVectoryPKvPK15DERSequenceSpecRNSt3__16vectorIhNS4_9allocatorIhEEEE, __ZN13SERestoreInfo11SEExceptionC1EP9__CFError, __ZN13SERestoreInfo11SEExceptionC1ERKNSt3__112basic_stringIcNS1_11char_traitsIcEENS1_9allocatorIcEEEEiPK10__CFString, __ZN13SERestoreInfo11SEExceptionC2EP9__CFError, __ZN13SERestoreInfo11SEExceptionC2ERKNSt3__112basic_stringIcNS1_11char_traitsIcEENS1_9allocatorIcEEEEiPK10__CFString, __ZN13SERestoreInfo11SEExceptionD0Ev, __ZN13SERestoreInfo11SEExceptionD1Ev, __ZN13SERestoreInfo11SEExceptionD2Ev, __ZN13SERestoreInfo11UpdateTableC1ERK7DERItem, __ZN13SERestoreInfo11UpdateTableC2ERK7DERItem, __ZN13SERestoreInfo11getChipTypeEPK14__CFDictionary, __ZN13SERestoreInfo12SEDEREncoderC1Ev, __ZN13SERestoreInfo12SEDEREncoderC2Ev, __ZN13SERestoreInfo12SEDEREncoderD1Ev, __ZN13SERestoreInfo12SEDEREncoderD2Ev, __ZN13SERestoreInfo13CreateCFErrorEPP9__CFErrorNSt3__112basic_stringIcNS3_11char_traitsIcEENS3_9allocatorIcEEEEiS1_PK10__CFString, __ZN13SERestoreInfo13P73DeviceInfoC1ERKNS_4BLOBE, __ZN13SERestoreInfo13P73DeviceInfoC1ERKPK14__CFDictionary, __ZN13SERestoreInfo13P73DeviceInfoC1Ev, __ZN13SERestoreInfo13P73DeviceInfoC2ERKNS_4BLOBE, __ZN13SERestoreInfo13P73DeviceInfoC2ERKPK14__CFDictionary, __ZN13SERestoreInfo13P73DeviceInfoC2Ev, __ZN13SERestoreInfo14SEFirmwareBase12getFormatVerEPK8__CFData, __ZN13SERestoreInfo14SEFirmwareBaseC2EPK8__CFData, __ZN13SERestoreInfo14makeSEFirmwareEPK8__CFData, __ZN13SERestoreInfo15IcefallFirmware12getImageNameE11ImageType_t, __ZN13SERestoreInfo16SERestoreInfoLog10FormatMsgvEPKcPc, __ZN13SERestoreInfo16SERestoreInfoLog12printToOsLogEPvPKc, __ZN13SERestoreInfo16SERestoreInfoLog15registerLogSinkEPFvPvPKcES1_, __ZN13SERestoreInfo16SERestoreInfoLog22createVerboseLogStringEiPKcS2_, __ZN13SERestoreInfo16SERestoreInfoLog3getEv, __ZN13SERestoreInfo16SERestoreInfoLog8instanceE, __ZN13SERestoreInfo16SERestoreInfoLog8printLogEiPKcS2_z, __ZN13SERestoreInfo16SERestoreInfoLog9FormatMsgEPKcz, __ZN13SERestoreInfo16SERestoreInfoLog9printLogvEiPKcS2_Pc, __ZN13SERestoreInfo16SN100VDeviceInfoC1ERKNS_4BLOBE, __ZN13SERestoreInfo16SN100VDeviceInfoC1ERKPK14__CFDictionary, __ZN13SERestoreInfo16SN100VDeviceInfoC1Ev, __ZN13SERestoreInfo16SN100VDeviceInfoC2ERKNS_4BLOBE, __ZN13SERestoreInfo16SN100VDeviceInfoC2ERKPK14__CFDictionary, __ZN13SERestoreInfo16SN100VDeviceInfoC2Ev, __ZN13SERestoreInfo17IcefallDeviceInfo12updateFromMQERKNS_4BLOBE, __ZN13SERestoreInfo17IcefallDeviceInfo4initEv, __ZN13SERestoreInfo17IcefallDeviceInfo8createMQEPK14__CFDictionary, __ZN13SERestoreInfo17IcefallDeviceInfo9isValidMQERKNS_4BLOBE, __ZN13SERestoreInfo17IcefallDeviceInfoC1ERKNS_4BLOBE, __ZN13SERestoreInfo17IcefallDeviceInfoC1ERKPK14__CFDictionary, __ZN13SERestoreInfo17IcefallDeviceInfoC1Ev, __ZN13SERestoreInfo17IcefallDeviceInfoC2ERKNS_4BLOBE, __ZN13SERestoreInfo17IcefallDeviceInfoC2ERKPK14__CFDictionary, __ZN13SERestoreInfo17IcefallDeviceInfoC2Ev, __ZN13SERestoreInfo17P73BaseDeviceInfo11getIm4StateEj, __ZN13SERestoreInfo17P73BaseDeviceInfo12getStateNameENS_10AMS_UOS_IDE, __ZN13SERestoreInfo17P73BaseDeviceInfo12isJcopActiveERKN35P73BaseManifestQueryResponseDerSpec20ManifestResponseDataE, __ZN13SERestoreInfo17P73BaseDeviceInfo13parseManifestERKNS_4BLOBE, __ZN13SERestoreInfo17P73BaseDeviceInfo16updateDeviceInfoERKN35P73BaseManifestQueryResponseDerSpec20ManifestResponseDataE, __ZN13SERestoreInfo17P73BaseDeviceInfo4initEv, __ZN13SERestoreInfo17P73BaseDeviceInfo9getChipIdERKN35P73BaseManifestQueryResponseDerSpec20ManifestResponseDataE, __ZN13SERestoreInfo17P73BaseDeviceInfoC1ERKNS_4BLOBE, __ZN13SERestoreInfo17P73BaseDeviceInfoC1ERKPK14__CFDictionary, __ZN13SERestoreInfo17P73BaseDeviceInfoC1Ev, __ZN13SERestoreInfo17P73BaseDeviceInfoC2ERKNS_4BLOBE, __ZN13SERestoreInfo17P73BaseDeviceInfoC2ERKPK14__CFDictionary, __ZN13SERestoreInfo17P73BaseDeviceInfoC2Ev, __ZN13SERestoreInfo17SERestoreInfoBaseC2EPK14__CFDictionaryNSt3__110shared_ptrIKNS_12SEDeviceInfoEEE, __ZN13SERestoreInfo17SERestoreInfoBaseD0Ev, __ZN13SERestoreInfo17SERestoreInfoBaseD1Ev, __ZN13SERestoreInfo17SERestoreInfoBaseD2Ev, __ZN13SERestoreInfo17_hexStringToBytesEPhPmPKhm, __ZN13SERestoreInfo17makeSERestoreInfoEPK14__CFDictionaryRP9__CFError, __ZN13SERestoreInfo18getValueFromCFDictEPK14__CFDictionaryPK10__CFStringmPvj, __ZN13SERestoreInfo21DEREncodeCallAndThrowEiPKc, __ZN13SERestoreInfo21IcefallDeliveryObject6addMacE11ImageType_tR7DERItem, __ZN13SERestoreInfo21IcefallDeliveryObject7addApduENS_10ApduType_tERK7DERItem, __ZN13SERestoreInfo21P73BaseDeliveryObject10parseFPRevENS_4BLOBE, __ZN13SERestoreInfo21P73BaseDeliveryObject9findEntryERKNS_11UpdateTableERKNS_17P73BaseDeviceInfoE, __ZN13SERestoreInfo21getReturdCodeAsStringE10ReturnCode, __ZN17SEFirmwareDERSpec22currentFirmwareVersionE, __ZN35P73BaseManifestQueryResponseDerSpec22currentManifestVersionE, __ZN35P73BaseManifestQueryResponseDerSpec27ManifestResponseSequenceTagE, __ZN9IcefallCA12getRootKeyIdE8RootCAId, __ZN9IcefallCA12getRootKeyIdENSt3__112basic_stringIcNS0_11char_traitsIcEENS0_9allocatorIcEEEE, __ZN9IcefallCA9getRootCAERKNSt3__16vectorIhNS0_9allocatorIhEEEE, __ZNK13SERestoreInfo11ImageBinary5printENSt3__112basic_stringIcNS1_11char_traitsIcEENS1_9allocatorIcEEEEb, __ZNK13SERestoreInfo11SEException10getCFErrorEPP9__CFError, __ZNK13SERestoreInfo11UpdateTable5printENSt3__112basic_stringIcNS1_11char_traitsIcEENS1_9allocatorIcEEEEb, __ZNK13SERestoreInfo12SEDeviceInfo10createDictEb, __ZNK13SERestoreInfo14SEFirmwareBase17createVersionDictEv, __ZNK13SERestoreInfo14SEFirmwareBase17getDeliveryObjectERKNSt3__16vectorIhNS1_9allocatorIhEEEE, __ZNK13SERestoreInfo14SEFirmwareBase21createMeasurementDictENSt3__110shared_ptrIKNS_12SEDeviceInfoEEE, __ZNK13SERestoreInfo14SEFirmwareBase21updateMeasurementDictEP14__CFDictionaryNSt3__110shared_ptrIKNS_12SEDeviceInfoEEE, __ZNK13SERestoreInfo14SEFirmwareBase3getEi, __ZNK13SERestoreInfo14SEFirmwareIterdeEv, __ZNK13SERestoreInfo15IcefallFirmware18makeDeliveryObjectERK7DERItem, __ZNK13SERestoreInfo15P73BaseFirmware17getDeliveryObjectERKNSt3__16vectorIhNS1_9allocatorIhEEEEi, __ZNK13SERestoreInfo15P73BaseFirmware18makeDeliveryObjectERK7DERItem, __ZNK13SERestoreInfo15P73BaseFirmware21updateMeasurementDictEP14__CFDictionaryNSt3__110shared_ptrIKNS_12SEDeviceInfoEEE, __ZNK13SERestoreInfo16UpdateTableEntry5printENSt3__112basic_stringIcNS1_11char_traitsIcEENS1_9allocatorIcEEEEb, __ZNK13SERestoreInfo17IcefallDeviceInfo10updateDictEP14__CFDictionaryb, __ZNK13SERestoreInfo17P73BaseDeviceInfo10updateDictEP14__CFDictionaryb, __ZNK13SERestoreInfo17P73BaseDeviceInfo15isFPStateInTearEv, __ZNK13SERestoreInfo17P73BaseDeviceInfo5isDevEv, __ZNK13SERestoreInfo17P73BaseDeviceInfo5printEb, __ZNK13SERestoreInfo17P73BaseDeviceInfo6isProdEv, __ZNK13SERestoreInfo17P73BaseDeviceInfo9createMQREv, __ZNK13SERestoreInfo17SERestoreInfoBase14getRequestDictEv, __ZNK13SERestoreInfo18IcefallRestoreInfo11getImageTagEv, __ZNK13SERestoreInfo18IcefallRestoreInfo11getTagsInBIEv, __ZNK13SERestoreInfo18P73BaseRestoreInfo11getImageTagEv, __ZNK13SERestoreInfo18P73BaseRestoreInfo11getTagsInBIEv, __ZNK13SERestoreInfo21IcefallDeliveryObject17updateMeasurementEP14__CFDictionaryPP9__CFError, __ZNK13SERestoreInfo21IcefallDeliveryObject17updateVersionDictEP14__CFDictionaryPP9__CFError, __ZNK13SERestoreInfo21IcefallDeliveryObject7matchIDERKNSt3__16vectorIhNS1_9allocatorIhEEEE, __ZNK13SERestoreInfo21P73BaseDeliveryObject13isFpAvailableEv, __ZNK13SERestoreInfo21P73BaseDeliveryObject14findNextActionENSt3__110shared_ptrIKNS_17P73BaseDeviceInfoEEE, __ZNK13SERestoreInfo21P73BaseDeliveryObject17updateMeasurementEP14__CFDictionaryPP9__CFError, __ZNK13SERestoreInfo21P73BaseDeliveryObject17updateVersionDictEP14__CFDictionaryPP9__CFError, __ZNK13SERestoreInfo21P73BaseDeliveryObject27findFactoryPostflightActionEv, __ZNK13SERestoreInfo21P73BaseDeliveryObject5printEb, __ZNK13SERestoreInfo21P73BaseDeliveryObject7matchIDERKNSt3__16vectorIhNS1_9allocatorIhEEEE, __ZTIN13SERestoreInfo11SEExceptionE, __ZTIN13SERestoreInfo14SEFirmwareBaseE, __ZTIN13SERestoreInfo15IcefallFirmwareE, __ZTIN13SERestoreInfo15P73BaseFirmwareE, __ZTIN13SERestoreInfo17IcefallDeviceInfoE, __ZTIN13SERestoreInfo17P73BaseDeviceInfoE, __ZTIN13SERestoreInfo17SERestoreInfoBaseE, __ZTIN13SERestoreInfo18IcefallRestoreInfoE, __ZTIN13SERestoreInfo18P73BaseRestoreInfoE, __ZTIN13SERestoreInfo21IcefallDeliveryObjectE, __ZTIN13SERestoreInfo21P73BaseDeliveryObjectE, __ZTSN13SERestoreInfo11SEExceptionE, __ZTSN13SERestoreInfo14SEFirmwareBaseE, __ZTSN13SERestoreInfo15IcefallFirmwareE, __ZTSN13SERestoreInfo15P73BaseFirmwareE, __ZTSN13SERestoreInfo17IcefallDeviceInfoE, __ZTSN13SERestoreInfo17P73BaseDeviceInfoE, __ZTSN13SERestoreInfo17SERestoreInfoBaseE, __ZTSN13SERestoreInfo18IcefallRestoreInfoE, __ZTSN13SERestoreInfo18P73BaseRestoreInfoE, __ZTSN13SERestoreInfo21IcefallDeliveryObjectE, __ZTSN13SERestoreInfo21P73BaseDeliveryObjectE, __ZTVN13SERestoreInfo11SEExceptionE, __ZTVN13SERestoreInfo14SEFirmwareBaseE, __ZTVN13SERestoreInfo15IcefallFirmwareE, __ZTVN13SERestoreInfo15P73BaseFirmwareE, __ZTVN13SERestoreInfo17IcefallDeviceInfoE, __ZTVN13SERestoreInfo17P73BaseDeviceInfoE, __ZTVN13SERestoreInfo17SERestoreInfoBaseE, __ZTVN13SERestoreInfo18IcefallRestoreInfoE, __ZTVN13SERestoreInfo18P73BaseRestoreInfoE, __ZTVN13SERestoreInfo21IcefallDeliveryObjectE, __ZTVN13SERestoreInfo21P73BaseDeliveryObjectE, _kLibAmSupportErrorDomain, _kLibAuthInstallErrorDomain, _kLibDEREncodeDomain, _kLibDerErrorDomain, _kLibImage4EncodeDomain, _kLibNfRestoreErrorDomain, _kSEBuildIdentityInfoKey, _kSEBuildIdentityPathKey, _kSEOptionAlderHostname, _kSEOptionApduFile, _kSEOptionBuildIdentity, _kSEOptionDebugArgs, _kSEOptionDeviceInfo, _kSEOptionEnableFactoryRFTest, _kSEOptionFirmwareData, _kSEOptionFirmwareIsOverride, _kSEOptionOption, _kSEOptionPerformFactoryConfiguration, _kSEOptionSourceBundlePath, _kSEOptionTicket, _kSEOptionsInternalRestore, _kSEOptionseHealthTest, _kSEReturnTagsInBI, _kSEReturnTagsInTssResponse, _kSETagDeviceBlFwImageKeysIdentifier, _kSETagDeviceChipID, _kSETagDeviceIsDev, _kSETagDeviceNonce, _kSETagDeviceOSUPubKeyID, _kSETagDeviceOsImageKeysIdentifier, _kSETagDeviceRootPublicKeyIdentifier, _kSETagDeviceSeid, _kSETagFactoryMode, _kSETagMeasurementBL, _kSETagMeasurementDevCMAC, _kSETagMeasurementDevHash, _kSETagMeasurementFW, _kSETagMeasurementMOS, _kSETagMeasurementOS, _kSETagMeasurementProdCMAC, _kSETagMeasurementProdHash, _kSETagMeasurementUpdatePayload, _kSETagRequestTicket, _kSETagResponseTicket, _kSETagVersionDev, _kSETagVersionProd, _kSEUpdaterErrorDomain ]
...
