--- !tapi-tbd-v3
archs:		[ arm64 ]
uuids:		['arm64: 878E2C86-3C57-3177-B065-268EA3F43E03' ]
platform:	ios
install-name:  /System/Library/PrivateFrameworks/CoreSuggestionsInternals.framework/CoreSuggestionsInternals
objc-constraint:	none
exports:
  - archs:	[ arm64 ]
    symbols:          [  _CreateCFBurstTrieFromFilePath, _MIN_PADDING, _OBJC_CLASS_$_SGAccountsAdapter, _OBJC_CLASS_$_SGAddressCoalescingState, _OBJC_CLASS_$_SGAggregateLogging, _OBJC_CLASS_$_SGAhoCorasick, _OBJC_CLASS_$_SGAppIconState, _OBJC_CLASS_$_SGAppLaunchHistory, _OBJC_CLASS_$_SGAsset, _OBJC_CLASS_$_SGBigUTF8String, _OBJC_CLASS_$_SGBloomFilter, _OBJC_CLASS_$_SGBloomFilterChunkInMemory, _OBJC_CLASS_$_SGBloomFilterChunkInMemorySparse, _OBJC_CLASS_$_SGBloomFilterChunkMmap, _OBJC_CLASS_$_SGBundleIdBlacklist, _OBJC_CLASS_$_SGCalendarAttachmentDissector, _OBJC_CLASS_$_SGChatLengthEstimator, _OBJC_CLASS_$_SGCoalescingDropBox, _OBJC_CLASS_$_SGContactAggregator, _OBJC_CLASS_$_SGContactDetail, _OBJC_CLASS_$_SGContactDetailKey, _OBJC_CLASS_$_SGContactDetailSummary, _OBJC_CLASS_$_SGContactDetailSupervision, _OBJC_CLASS_$_SGContactDetailsHolder, _OBJC_CLASS_$_SGContactEntity, _OBJC_CLASS_$_SGContactPipelineHelper, _OBJC_CLASS_$_SGContactSharingModelHelper, _OBJC_CLASS_$_SGContactSharingTransformer, _OBJC_CLASS_$_SGContactStoreFactory, _OBJC_CLASS_$_SGContactsInterface, _OBJC_CLASS_$_SGContentAdmission, _OBJC_CLASS_$_SGContentAdmissionKVOObserver, _OBJC_CLASS_$_SGConversationFlatteningTransformer, _OBJC_CLASS_$_SGConversationHistory, _OBJC_CLASS_$_SGCuratedChangeNotifications, _OBJC_CLASS_$_SGCuratedChangeNotificationsAddressBookListener, _OBJC_CLASS_$_SGCuratedChangeNotificationsBaseListener, _OBJC_CLASS_$_SGCuratedChangeNotificationsCalendarListener, _OBJC_CLASS_$_SGCuratedContactKey, _OBJC_CLASS_$_SGCuratedContactMatcher, _OBJC_CLASS_$_SGCuratedEventKey, _OBJC_CLASS_$_SGDCKEvent, _OBJC_CLASS_$_SGDCKLocation, _OBJC_CLASS_$_SGDCKTimeRange, _OBJC_CLASS_$_SGDCloudKitSync, _OBJC_CLASS_$_SGDHarvestQueue, _OBJC_CLASS_$_SGDHarvestQueueCombo, _OBJC_CLASS_$_SGDHarvestQueueFileReader, _OBJC_CLASS_$_SGDHarvestQueueFileRegistry, _OBJC_CLASS_$_SGDHarvestQueueFileWriter, _OBJC_CLASS_$_SGDHarvestQueueInMemory, _OBJC_CLASS_$_SGDHarvestQueueItem, _OBJC_CLASS_$_SGDHarvestQueueItemInMemory, _OBJC_CLASS_$_SGDHarvestQueueItemLegacy, _OBJC_CLASS_$_SGDHarvestQueueItemOnDisk, _OBJC_CLASS_$_SGDHarvestQueueLegacy, _OBJC_CLASS_$_SGDHarvestQueueNop, _OBJC_CLASS_$_SGDHarvestQueueOnDisk, _OBJC_CLASS_$_SGDManagerForCTS, _OBJC_CLASS_$_SGDNotificationBroadcaster, _OBJC_CLASS_$_SGDPluginManager, _OBJC_CLASS_$_SGDPowerBudget, _OBJC_CLASS_$_SGDPowerBudgetThrottlingState, _OBJC_CLASS_$_SGDPowerLog, _OBJC_CLASS_$_SGDSpotlightCommander, _OBJC_CLASS_$_SGDSpotlightReceiver, _OBJC_CLASS_$_SGDSuggestManager, _OBJC_CLASS_$_SGDWorkQueue, _OBJC_CLASS_$_SGDWorkQueueFile, _OBJC_CLASS_$_SGDWorkQueueItem, _OBJC_CLASS_$_SGDWorkQueueName, _OBJC_CLASS_$_SGDataDetectorDissector, _OBJC_CLASS_$_SGDataDetectorMatch, _OBJC_CLASS_$_SGDataNormalization, _OBJC_CLASS_$_SGDatabaseJournal, _OBJC_CLASS_$_SGDatabaseJournalFile, _OBJC_CLASS_$_SGDatabaseMigratorEntities, _OBJC_CLASS_$_SGDatabaseMigratorSnippets, _OBJC_CLASS_$_SGDeduper, _OBJC_CLASS_$_SGDetectedAttributeDissector, _OBJC_CLASS_$_SGDetectedAttributeML, _OBJC_CLASS_$_SGDetectedAttributeMetrics, _OBJC_CLASS_$_SGDetection, _OBJC_CLASS_$_SGDuplicateKey, _OBJC_CLASS_$_SGEKCalendarAdapter, _OBJC_CLASS_$_SGEmailKey, _OBJC_CLASS_$_SGEntity, _OBJC_CLASS_$_SGEntityMappingTransformer, _OBJC_CLASS_$_SGEntityMatchingTransformer, _OBJC_CLASS_$_SGExtractionDissector, _OBJC_CLASS_$_SGFirstPersonAddressSharingModel, _OBJC_CLASS_$_SGFirstPersonEmailSharingModel, _OBJC_CLASS_$_SGFirstPersonPhoneSharingModel, _OBJC_CLASS_$_SGFlight, _OBJC_CLASS_$_SGFlightData, _OBJC_CLASS_$_SGHistoryObserver, _OBJC_CLASS_$_SGHtmlEntities, _OBJC_CLASS_$_SGHtmlParserDissector, _OBJC_CLASS_$_SGHtmlParserDissectorTask, _OBJC_CLASS_$_SGIconLocation, _OBJC_CLASS_$_SGIdentityEdge, _OBJC_CLASS_$_SGIdentityKey, _OBJC_CLASS_$_SGIdentityName, _OBJC_CLASS_$_SGInMemoryAdapter, _OBJC_CLASS_$_SGInhumanDissector, _OBJC_CLASS_$_SGInhumans, _OBJC_CLASS_$_SGInteractionKey, _OBJC_CLASS_$_SGJSBurstTrie, _OBJC_CLASS_$_SGJournal, _OBJC_CLASS_$_SGJournalEntry, _OBJC_CLASS_$_SGKeyValueCacheManager, _OBJC_CLASS_$_SGKnownNameMappingTransformer, _OBJC_CLASS_$_SGLabeledValue, _OBJC_CLASS_$_SGLanguageDetection, _OBJC_CLASS_$_SGLevenshtein, _OBJC_CLASS_$_SGLongRunningTask, _OBJC_CLASS_$_SGLongRunningTaskManager, _OBJC_CLASS_$_SGMailAttachment, _OBJC_CLASS_$_SGMailPatterns, _OBJC_CLASS_$_SGMailQuoteDissector, _OBJC_CLASS_$_SGMailUtils, _OBJC_CLASS_$_SGMeContact, _OBJC_CLASS_$_SGMessage, _OBJC_CLASS_$_SGMessageKey, _OBJC_CLASS_$_SGMicrodataDocument, _OBJC_CLASS_$_SGMicrodataItem, _OBJC_CLASS_$_SGMicrodataItemProp, _OBJC_CLASS_$_SGMicrodataItemScope, _OBJC_CLASS_$_SGMicrodataParser, _OBJC_CLASS_$_SGMicrodataParserStackItem, _OBJC_CLASS_$_SGModel, _OBJC_CLASS_$_SGModelAsset, _OBJC_CLASS_$_SGModelFeatures, _OBJC_CLASS_$_SGModelMappingHelper, _OBJC_CLASS_$_SGModelRules, _OBJC_CLASS_$_SGMonochrome, _OBJC_CLASS_$_SGNGramTransformer, _OBJC_CLASS_$_SGNLPDetection, _OBJC_CLASS_$_SGNameInversionPredictor, _OBJC_CLASS_$_SGNameMappingTransformer, _OBJC_CLASS_$_SGNamedEntityContainer, _OBJC_CLASS_$_SGNamedEntityDissector, _OBJC_CLASS_$_SGNamedEntityDissectorGuardedData, _OBJC_CLASS_$_SGNamedEntityPlugin, _OBJC_CLASS_$_SGNamedEntityStringDonationHandler, _OBJC_CLASS_$_SGNames, _OBJC_CLASS_$_SGNaturalLanguageDissector, _OBJC_CLASS_$_SGNicknames, _OBJC_CLASS_$_SGNoCloudNSUbiquitousKeyValueStore, _OBJC_CLASS_$_SGOffsetDictionary, _OBJC_CLASS_$_SGParsedName, _OBJC_CLASS_$_SGParsedPersonFromInteraction, _OBJC_CLASS_$_SGPaths, _OBJC_CLASS_$_SGPatternDataFile, _OBJC_CLASS_$_SGPatternGlobalData, _OBJC_CLASS_$_SGPatterns, _OBJC_CLASS_$_SGPipeline, _OBJC_CLASS_$_SGPipelineDissector, _OBJC_CLASS_$_SGPipelineEntity, _OBJC_CLASS_$_SGPipelineTransformer, _OBJC_CLASS_$_SGPlainTextContentCursor, _OBJC_CLASS_$_SGPreparedStatement, _OBJC_CLASS_$_SGPseudoContactKey, _OBJC_CLASS_$_SGPseudoEventKey, _OBJC_CLASS_$_SGQuickResponsesClassificationModel, _OBJC_CLASS_$_SGQuickResponsesML, _OBJC_CLASS_$_SGQuickResponsesModel, _OBJC_CLASS_$_SGQuickResponsesModelRules, _OBJC_CLASS_$_SGQuickResponsesTransformerInstance, _OBJC_CLASS_$_SGRTCLogging, _OBJC_CLASS_$_SGRawKey, _OBJC_CLASS_$_SGRe2, _OBJC_CLASS_$_SGRe2Basic, _OBJC_CLASS_$_SGRe2Lazy, _OBJC_CLASS_$_SGRe2PrefilterTree, _OBJC_CLASS_$_SGRe2Subregexps, _OBJC_CLASS_$_SGRealtimeEventResponse, _OBJC_CLASS_$_SGRealtimeSuggestionsTuple, _OBJC_CLASS_$_SGRegexTransformer, _OBJC_CLASS_$_SGReplyParserDissector, _OBJC_CLASS_$_SGRequestContext, _OBJC_CLASS_$_SGReverseTemplateJS, _OBJC_CLASS_$_SGReverseTemplatesJSDataDetectors, _OBJC_CLASS_$_SGSGtoCNContactsCacheUpdateAdapter, _OBJC_CLASS_$_SGSchemaOrgKey, _OBJC_CLASS_$_SGSeekableData, _OBJC_CLASS_$_SGSelfIDSupervision, _OBJC_CLASS_$_SGSelfIdentification, _OBJC_CLASS_$_SGSelfIdentificationDetection, _OBJC_CLASS_$_SGSelfIdentificationModel, _OBJC_CLASS_$_SGServiceContext, _OBJC_CLASS_$_SGSignatureDissector, _OBJC_CLASS_$_SGSignificantAddressModel, _OBJC_CLASS_$_SGSignificantEmailAddressModel, _OBJC_CLASS_$_SGSignificantPhonenumberModel, _OBJC_CLASS_$_SGSimpleMailHeaderKeyValue, _OBJC_CLASS_$_SGSimpleMailMessage, _OBJC_CLASS_$_SGSlice, _OBJC_CLASS_$_SGSpotlightContactsAdapter, _OBJC_CLASS_$_SGSqlEntityStore, _OBJC_CLASS_$_SGSqliteDatabase, _OBJC_CLASS_$_SGSqliteExitOnDeviceLockErrorHandler, _OBJC_CLASS_$_SGStorageContact, _OBJC_CLASS_$_SGStorageEvent, _OBJC_CLASS_$_SGStorageLocation, _OBJC_CLASS_$_SGStringLabellingTransformer, _OBJC_CLASS_$_SGStringMappingTransformer, _OBJC_CLASS_$_SGStringPreprocessingTransformer, _OBJC_CLASS_$_SGStringReplacementTransformer, _OBJC_CLASS_$_SGSuggestHistory, _OBJC_CLASS_$_SGSymbolicMappingTransformer, _OBJC_CLASS_$_SGTaggedMallocCompressionBuffer, _OBJC_CLASS_$_SGTaggedMallocEmailHtml, _OBJC_CLASS_$_SGTaggedMallocLevenshteinDistanceBuffer, _OBJC_CLASS_$_SGTaggedMallocWorkQueueItemPart, _OBJC_CLASS_$_SGTextFeaturization, _OBJC_CLASS_$_SGTextFeaturizationLabelTransformer, _OBJC_CLASS_$_SGTextFeaturizationVectorTransformer, _OBJC_CLASS_$_SGTextMessage, _OBJC_CLASS_$_SGTextMessageConversationTracker, _OBJC_CLASS_$_SGTextMessageItem, _OBJC_CLASS_$_SGTextMessageKey, _OBJC_CLASS_$_SGThirdPersonAddressSharingModel, _OBJC_CLASS_$_SGThirdPersonEmailSharingModel, _OBJC_CLASS_$_SGThirdPersonPhoneSharingModel, _OBJC_CLASS_$_SGThreadParser, _OBJC_CLASS_$_SGTokenDistanceMappingTransformer, _OBJC_CLASS_$_SGTokenString, _OBJC_CLASS_$_SGTokenizer, _OBJC_CLASS_$_SGTokenizerMappingTransformer, _OBJC_CLASS_$_SGTransformerInstance, _OBJC_CLASS_$_SGUnrecognizedContactKey, _OBJC_CLASS_$_SGWebPageKey, _OBJC_CLASS_$_SGWords, _OBJC_CLASS_$_SGXPCActivityManager, _OBJC_CLASS_$_SGXpcTransaction, _OBJC_CLASS_$__SGDCloudKitSyncPersistedState, _OBJC_IVAR_$_SGDCKEvent._allDay, _OBJC_IVAR_$_SGDCKEvent._cancelled, _OBJC_IVAR_$_SGDCKEvent._categoryType, _OBJC_IVAR_$_SGDCKEvent._content, _OBJC_IVAR_$_SGDCKEvent._creationTimestamp, _OBJC_IVAR_$_SGDCKEvent._domain, _OBJC_IVAR_$_SGDCKEvent._extraKey, _OBJC_IVAR_$_SGDCKEvent._groupId, _OBJC_IVAR_$_SGDCKEvent._has, _OBJC_IVAR_$_SGDCKEvent._lastModifiedTimestamp, _OBJC_IVAR_$_SGDCKEvent._locations, _OBJC_IVAR_$_SGDCKEvent._schemaOrg, _OBJC_IVAR_$_SGDCKEvent._sourceKey, _OBJC_IVAR_$_SGDCKEvent._templateName, _OBJC_IVAR_$_SGDCKEvent._title, _OBJC_IVAR_$_SGDCKEvent._when, _OBJC_IVAR_$_SGDCKLocation._accuracy, _OBJC_IVAR_$_SGDCKLocation._address, _OBJC_IVAR_$_SGDCKLocation._airportCode, _OBJC_IVAR_$_SGDCKLocation._handle, _OBJC_IVAR_$_SGDCKLocation._has, _OBJC_IVAR_$_SGDCKLocation._label, _OBJC_IVAR_$_SGDCKLocation._latitude, _OBJC_IVAR_$_SGDCKLocation._locationType, _OBJC_IVAR_$_SGDCKLocation._longitude, _OBJC_IVAR_$_SGDCKLocation._quality, _OBJC_IVAR_$_SGDCKTimeRange._end, _OBJC_IVAR_$_SGDCKTimeRange._endUTCOffsetSeconds, _OBJC_IVAR_$_SGDCKTimeRange._floating, _OBJC_IVAR_$_SGDCKTimeRange._has, _OBJC_IVAR_$_SGDCKTimeRange._start, _OBJC_IVAR_$_SGDCKTimeRange._startUTCOffsetSeconds, _OBJC_IVAR_$_SGDHarvestQueueItem._fails, _OBJC_IVAR_$_SGDHarvestQueueItem._item, _OBJC_IVAR_$_SGDHarvestQueueItem._itemId, _OBJC_IVAR_$_SGHtmlParserDissectorTask._activeRegionIndexSetStack, _OBJC_IVAR_$_SGHtmlParserDissectorTask._activeRegionStartPositionStack, _OBJC_IVAR_$_SGHtmlParserDissectorTask._activeRegions, _OBJC_IVAR_$_SGHtmlParserDissectorTask._bytesConsumedInPreviousPasses, _OBJC_IVAR_$_SGHtmlParserDissectorTask._chunkLength, _OBJC_IVAR_$_SGHtmlParserDissectorTask._chunkStart, _OBJC_IVAR_$_SGHtmlParserDissectorTask._currentLineData, _OBJC_IVAR_$_SGHtmlParserDissectorTask._currentLineIsCollapsed, _OBJC_IVAR_$_SGHtmlParserDissectorTask._currentLineString, _OBJC_IVAR_$_SGHtmlParserDissectorTask._depth, _OBJC_IVAR_$_SGHtmlParserDissectorTask._depthsWithActiveRegions, _OBJC_IVAR_$_SGHtmlParserDissectorTask._parserContext, _OBJC_IVAR_$_SGHtmlParserDissectorTask._plainTextLineToHTMLOffset, _OBJC_IVAR_$_SGHtmlParserDissectorTask._plainTextLines, _OBJC_IVAR_$_SGHtmlParserDissectorTask._plainTextLinesTotalLength, _OBJC_IVAR_$_SGHtmlParserDissectorTask._preBlockDepth, _OBJC_IVAR_$_SGHtmlParserDissectorTask._quoteToEndFromPosition, _OBJC_IVAR_$_SGHtmlParserDissectorTask._quotedRegions, _OBJC_IVAR_$_SGHtmlParserDissectorTask._renderingSuspended, _OBJC_IVAR_$_SGHtmlParserDissectorTask._sigHtmlBlockRegions, _OBJC_IVAR_$_SGHtmlParserDissectorTask._tabularRegions, _OBJC_IVAR_$_SGIdentityEdge.a, _OBJC_IVAR_$_SGIdentityEdge.b, _OBJC_IVAR_$_SGIdentityEdge.strength, _OBJC_IVAR_$_SGIdentityName._privFullName, _OBJC_IVAR_$_SGMicrodataDocument._htmlIds, _OBJC_IVAR_$_SGMicrodataDocument._items, _OBJC_IVAR_$_SGMicrodataItem._itemRef, _OBJC_IVAR_$_SGMicrodataItemScope._itemProps, _OBJC_IVAR_$_SGNamedEntityDissectorGuardedData.nlpTagger, _OBJC_IVAR_$_SGOffsetDictionary._carrierEntries, _OBJC_IVAR_$_SGOffsetDictionary._count, _OBJC_IVAR_$_SGOffsetDictionary._mruCarrierEntry, _OBJC_IVAR_$_SGOffsetDictionary._payloadOffset, _OBJC_IVAR_$_SGOffsetDictionary._sizeFactor, _OBJC_IVAR_$_SGOffsetDictionary._totalPayloadSize, _OBJC_IVAR_$_SGPatternGlobalData.currentLanguages, _OBJC_IVAR_$_SGPatternGlobalData.globalLanguageVersion, _OBJC_IVAR_$_SGPatternGlobalData.patternData, _OBJC_IVAR_$_SGPatternGlobalData.patternDict, _OBJC_IVAR_$_SGPatternGlobalData.patternInstances, _OBJC_IVAR_$_SGPatternGlobalData.regexesImmuneToDeath, _OBJC_IVAR_$_SGPatternGlobalData.reinstateDeathTimer, _OBJC_IVAR_$_SGPatternGlobalData.useAllLanguages, _OBJC_IVAR_$_SGSlice._end, _OBJC_IVAR_$_SGSlice._start, _OBJC_IVAR_$_SGSlice._type, _OBJC_IVAR_$_SGSqlEntityStore._crLookup, _OBJC_IVAR_$_SGSqlEntityStore._db, _OBJC_IVAR_$_SGSqlEntityStore._deallocNotifications, _OBJC_IVAR_$_SGSqlEntityStore._entityMigrationRequiresMergeBlobUpdate, _OBJC_IVAR_$_SGSqlEntityStore._entityMigrations, _OBJC_IVAR_$_SGSqlEntityStore._entityVersion, _OBJC_IVAR_$_SGSqlEntityStore._executeJournals, _OBJC_IVAR_$_SGSqlEntityStore._history, _OBJC_IVAR_$_SGSqlEntityStore._identityStoreDirty, _OBJC_IVAR_$_SGSqlEntityStore._isClosed, _OBJC_IVAR_$_SGSqlEntityStore._journal, _OBJC_IVAR_$_SGSqlEntityStore._lockStateNotificationRegistrationToken, _OBJC_IVAR_$_SGSqlEntityStore._lostMessageOverflow, _OBJC_IVAR_$_SGSqlEntityStore._messageRecipients, _OBJC_IVAR_$_SGSqlEntityStore._otherDetailsWithNoContact, _OBJC_IVAR_$_SGSqlEntityStore._parentMessagesLimit, _OBJC_IVAR_$_SGSqlEntityStore._phoneNumbersWithNoContact, _OBJC_IVAR_$_SGSqlEntityStore._precomputationQueue, _OBJC_IVAR_$_SGSqlEntityStore._prematchedContactIdentifiers, _OBJC_IVAR_$_SGSqlEntityStore._recentlyDeletedEmailKeys, _OBJC_IVAR_$_SGSqlEntityStore._serializedContactEntityIDs, _OBJC_IVAR_$_SGSqlEntityStore._serializedContactsLimit, _OBJC_IVAR_$_SGSqlEntityStore._sgToCNContactsCacheUpdateAdapter, _OBJC_IVAR_$_SGSqlEntityStore._snippetDb, _OBJC_IVAR_$_SGSqlEntityStore._snippetDbPath, _OBJC_IVAR_$_SGSqlEntityStore._snippetsJournal, _OBJC_IVAR_$_SGSqlEntityStore._snippetsMigrations, _OBJC_IVAR_$_SGSqlEntityStore._snippetsVersion, _OBJC_IVAR_$_SGSqlEntityStore._spotlightContactsAdapter, _OBJC_IVAR_$_SGSqlEntityStore._spotlightReindexCount, _OBJC_IVAR_$_SGSqlEntityStore._spotlightReindexQueue, _OBJC_IVAR_$_SGSqliteDatabase._currentExclusivity, _OBJC_IVAR_$_SGSqliteDatabase._db, _OBJC_IVAR_$_SGSqliteDatabase._filename, _OBJC_IVAR_$_SGSqliteDatabase._isClosed, _OBJC_IVAR_$_SGSqliteDatabase._lock, _OBJC_IVAR_$_SGSqliteDatabase._queryCache, _OBJC_IVAR_$_SGSqliteDatabase._sqlarrays, _OBJC_IVAR_$_SGSqliteDatabase._statementsToFinalizeAsync, _OBJC_IVAR_$_SGSqliteDatabase._transactionDepth, _OBJC_IVAR_$_SGSqliteDatabase._transactionRolledback, _OBJC_METACLASS_$_SGAccountsAdapter, _OBJC_METACLASS_$_SGAddressCoalescingState, _OBJC_METACLASS_$_SGAggregateLogging, _OBJC_METACLASS_$_SGAhoCorasick, _OBJC_METACLASS_$_SGAppIconState, _OBJC_METACLASS_$_SGAppLaunchHistory, _OBJC_METACLASS_$_SGAsset, _OBJC_METACLASS_$_SGBigUTF8String, _OBJC_METACLASS_$_SGBloomFilter, _OBJC_METACLASS_$_SGBloomFilterChunkInMemory, _OBJC_METACLASS_$_SGBloomFilterChunkInMemorySparse, _OBJC_METACLASS_$_SGBloomFilterChunkMmap, _OBJC_METACLASS_$_SGBundleIdBlacklist, _OBJC_METACLASS_$_SGCalendarAttachmentDissector, _OBJC_METACLASS_$_SGChatLengthEstimator, _OBJC_METACLASS_$_SGCoalescingDropBox, _OBJC_METACLASS_$_SGContactAggregator, _OBJC_METACLASS_$_SGContactDetail, _OBJC_METACLASS_$_SGContactDetailKey, _OBJC_METACLASS_$_SGContactDetailSummary, _OBJC_METACLASS_$_SGContactDetailSupervision, _OBJC_METACLASS_$_SGContactDetailsHolder, _OBJC_METACLASS_$_SGContactEntity, _OBJC_METACLASS_$_SGContactPipelineHelper, _OBJC_METACLASS_$_SGContactSharingModelHelper, _OBJC_METACLASS_$_SGContactSharingTransformer, _OBJC_METACLASS_$_SGContactStoreFactory, _OBJC_METACLASS_$_SGContactsInterface, _OBJC_METACLASS_$_SGContentAdmission, _OBJC_METACLASS_$_SGContentAdmissionKVOObserver, _OBJC_METACLASS_$_SGConversationFlatteningTransformer, _OBJC_METACLASS_$_SGConversationHistory, _OBJC_METACLASS_$_SGCuratedChangeNotifications, _OBJC_METACLASS_$_SGCuratedChangeNotificationsAddressBookListener, _OBJC_METACLASS_$_SGCuratedChangeNotificationsBaseListener, _OBJC_METACLASS_$_SGCuratedChangeNotificationsCalendarListener, _OBJC_METACLASS_$_SGCuratedContactKey, _OBJC_METACLASS_$_SGCuratedContactMatcher, _OBJC_METACLASS_$_SGCuratedEventKey, _OBJC_METACLASS_$_SGDCKEvent, _OBJC_METACLASS_$_SGDCKLocation, _OBJC_METACLASS_$_SGDCKTimeRange, _OBJC_METACLASS_$_SGDCloudKitSync, _OBJC_METACLASS_$_SGDHarvestQueue, _OBJC_METACLASS_$_SGDHarvestQueueCombo, _OBJC_METACLASS_$_SGDHarvestQueueFileReader, _OBJC_METACLASS_$_SGDHarvestQueueFileRegistry, _OBJC_METACLASS_$_SGDHarvestQueueFileWriter, _OBJC_METACLASS_$_SGDHarvestQueueInMemory, _OBJC_METACLASS_$_SGDHarvestQueueItem, _OBJC_METACLASS_$_SGDHarvestQueueItemInMemory, _OBJC_METACLASS_$_SGDHarvestQueueItemLegacy, _OBJC_METACLASS_$_SGDHarvestQueueItemOnDisk, _OBJC_METACLASS_$_SGDHarvestQueueLegacy, _OBJC_METACLASS_$_SGDHarvestQueueNop, _OBJC_METACLASS_$_SGDHarvestQueueOnDisk, _OBJC_METACLASS_$_SGDManagerForCTS, _OBJC_METACLASS_$_SGDNotificationBroadcaster, _OBJC_METACLASS_$_SGDPluginManager, _OBJC_METACLASS_$_SGDPowerBudget, _OBJC_METACLASS_$_SGDPowerBudgetThrottlingState, _OBJC_METACLASS_$_SGDPowerLog, _OBJC_METACLASS_$_SGDSpotlightCommander, _OBJC_METACLASS_$_SGDSpotlightReceiver, _OBJC_METACLASS_$_SGDSuggestManager, _OBJC_METACLASS_$_SGDWorkQueue, _OBJC_METACLASS_$_SGDWorkQueueFile, _OBJC_METACLASS_$_SGDWorkQueueItem, _OBJC_METACLASS_$_SGDWorkQueueName, _OBJC_METACLASS_$_SGDataDetectorDissector, _OBJC_METACLASS_$_SGDataDetectorMatch, _OBJC_METACLASS_$_SGDataNormalization, _OBJC_METACLASS_$_SGDatabaseJournal, _OBJC_METACLASS_$_SGDatabaseJournalFile, _OBJC_METACLASS_$_SGDatabaseMigratorEntities, _OBJC_METACLASS_$_SGDatabaseMigratorSnippets, _OBJC_METACLASS_$_SGDeduper, _OBJC_METACLASS_$_SGDetectedAttributeDissector, _OBJC_METACLASS_$_SGDetectedAttributeML, _OBJC_METACLASS_$_SGDetectedAttributeMetrics, _OBJC_METACLASS_$_SGDetection, _OBJC_METACLASS_$_SGDuplicateKey, _OBJC_METACLASS_$_SGEKCalendarAdapter, _OBJC_METACLASS_$_SGEmailKey, _OBJC_METACLASS_$_SGEntity, _OBJC_METACLASS_$_SGEntityMappingTransformer, _OBJC_METACLASS_$_SGEntityMatchingTransformer, _OBJC_METACLASS_$_SGExtractionDissector, _OBJC_METACLASS_$_SGFirstPersonAddressSharingModel, _OBJC_METACLASS_$_SGFirstPersonEmailSharingModel, _OBJC_METACLASS_$_SGFirstPersonPhoneSharingModel, _OBJC_METACLASS_$_SGFlight, _OBJC_METACLASS_$_SGFlightData, _OBJC_METACLASS_$_SGHistoryObserver, _OBJC_METACLASS_$_SGHtmlEntities, _OBJC_METACLASS_$_SGHtmlParserDissector, _OBJC_METACLASS_$_SGHtmlParserDissectorTask, _OBJC_METACLASS_$_SGIconLocation, _OBJC_METACLASS_$_SGIdentityEdge, _OBJC_METACLASS_$_SGIdentityKey, _OBJC_METACLASS_$_SGIdentityName, _OBJC_METACLASS_$_SGInMemoryAdapter, _OBJC_METACLASS_$_SGInhumanDissector, _OBJC_METACLASS_$_SGInhumans, _OBJC_METACLASS_$_SGInteractionKey, _OBJC_METACLASS_$_SGJSBurstTrie, _OBJC_METACLASS_$_SGJournal, _OBJC_METACLASS_$_SGJournalEntry, _OBJC_METACLASS_$_SGKeyValueCacheManager, _OBJC_METACLASS_$_SGKnownNameMappingTransformer, _OBJC_METACLASS_$_SGLabeledValue, _OBJC_METACLASS_$_SGLanguageDetection, _OBJC_METACLASS_$_SGLevenshtein, _OBJC_METACLASS_$_SGLongRunningTask, _OBJC_METACLASS_$_SGLongRunningTaskManager, _OBJC_METACLASS_$_SGMailAttachment, _OBJC_METACLASS_$_SGMailPatterns, _OBJC_METACLASS_$_SGMailQuoteDissector, _OBJC_METACLASS_$_SGMailUtils, _OBJC_METACLASS_$_SGMeContact, _OBJC_METACLASS_$_SGMessage, _OBJC_METACLASS_$_SGMessageKey, _OBJC_METACLASS_$_SGMicrodataDocument, _OBJC_METACLASS_$_SGMicrodataItem, _OBJC_METACLASS_$_SGMicrodataItemProp, _OBJC_METACLASS_$_SGMicrodataItemScope, _OBJC_METACLASS_$_SGMicrodataParser, _OBJC_METACLASS_$_SGMicrodataParserStackItem, _OBJC_METACLASS_$_SGModel, _OBJC_METACLASS_$_SGModelAsset, _OBJC_METACLASS_$_SGModelFeatures, _OBJC_METACLASS_$_SGModelMappingHelper, _OBJC_METACLASS_$_SGModelRules, _OBJC_METACLASS_$_SGMonochrome, _OBJC_METACLASS_$_SGNGramTransformer, _OBJC_METACLASS_$_SGNLPDetection, _OBJC_METACLASS_$_SGNameInversionPredictor, _OBJC_METACLASS_$_SGNameMappingTransformer, _OBJC_METACLASS_$_SGNamedEntityContainer, _OBJC_METACLASS_$_SGNamedEntityDissector, _OBJC_METACLASS_$_SGNamedEntityDissectorGuardedData, _OBJC_METACLASS_$_SGNamedEntityPlugin, _OBJC_METACLASS_$_SGNamedEntityStringDonationHandler, _OBJC_METACLASS_$_SGNames, _OBJC_METACLASS_$_SGNaturalLanguageDissector, _OBJC_METACLASS_$_SGNicknames, _OBJC_METACLASS_$_SGNoCloudNSUbiquitousKeyValueStore, _OBJC_METACLASS_$_SGOffsetDictionary, _OBJC_METACLASS_$_SGParsedName, _OBJC_METACLASS_$_SGParsedPersonFromInteraction, _OBJC_METACLASS_$_SGPaths, _OBJC_METACLASS_$_SGPatternDataFile, _OBJC_METACLASS_$_SGPatternGlobalData, _OBJC_METACLASS_$_SGPatterns, _OBJC_METACLASS_$_SGPipeline, _OBJC_METACLASS_$_SGPipelineDissector, _OBJC_METACLASS_$_SGPipelineEntity, _OBJC_METACLASS_$_SGPipelineTransformer, _OBJC_METACLASS_$_SGPlainTextContentCursor, _OBJC_METACLASS_$_SGPreparedStatement, _OBJC_METACLASS_$_SGPseudoContactKey, _OBJC_METACLASS_$_SGPseudoEventKey, _OBJC_METACLASS_$_SGQuickResponsesClassificationModel, _OBJC_METACLASS_$_SGQuickResponsesML, _OBJC_METACLASS_$_SGQuickResponsesModel, _OBJC_METACLASS_$_SGQuickResponsesModelRules, _OBJC_METACLASS_$_SGQuickResponsesTransformerInstance, _OBJC_METACLASS_$_SGRTCLogging, _OBJC_METACLASS_$_SGRawKey, _OBJC_METACLASS_$_SGRe2, _OBJC_METACLASS_$_SGRe2Basic, _OBJC_METACLASS_$_SGRe2Lazy, _OBJC_METACLASS_$_SGRe2PrefilterTree, _OBJC_METACLASS_$_SGRe2Subregexps, _OBJC_METACLASS_$_SGRealtimeEventResponse, _OBJC_METACLASS_$_SGRealtimeSuggestionsTuple, _OBJC_METACLASS_$_SGRegexTransformer, _OBJC_METACLASS_$_SGReplyParserDissector, _OBJC_METACLASS_$_SGRequestContext, _OBJC_METACLASS_$_SGReverseTemplateJS, _OBJC_METACLASS_$_SGReverseTemplatesJSDataDetectors, _OBJC_METACLASS_$_SGSGtoCNContactsCacheUpdateAdapter, _OBJC_METACLASS_$_SGSchemaOrgKey, _OBJC_METACLASS_$_SGSeekableData, _OBJC_METACLASS_$_SGSelfIDSupervision, _OBJC_METACLASS_$_SGSelfIdentification, _OBJC_METACLASS_$_SGSelfIdentificationDetection, _OBJC_METACLASS_$_SGSelfIdentificationModel, _OBJC_METACLASS_$_SGServiceContext, _OBJC_METACLASS_$_SGSignatureDissector, _OBJC_METACLASS_$_SGSignificantAddressModel, _OBJC_METACLASS_$_SGSignificantEmailAddressModel, _OBJC_METACLASS_$_SGSignificantPhonenumberModel, _OBJC_METACLASS_$_SGSimpleMailHeaderKeyValue, _OBJC_METACLASS_$_SGSimpleMailMessage, _OBJC_METACLASS_$_SGSlice, _OBJC_METACLASS_$_SGSpotlightContactsAdapter, _OBJC_METACLASS_$_SGSqlEntityStore, _OBJC_METACLASS_$_SGSqliteDatabase, _OBJC_METACLASS_$_SGSqliteExitOnDeviceLockErrorHandler, _OBJC_METACLASS_$_SGStorageContact, _OBJC_METACLASS_$_SGStorageEvent, _OBJC_METACLASS_$_SGStorageLocation, _OBJC_METACLASS_$_SGStringLabellingTransformer, _OBJC_METACLASS_$_SGStringMappingTransformer, _OBJC_METACLASS_$_SGStringPreprocessingTransformer, _OBJC_METACLASS_$_SGStringReplacementTransformer, _OBJC_METACLASS_$_SGSuggestHistory, _OBJC_METACLASS_$_SGSymbolicMappingTransformer, _OBJC_METACLASS_$_SGTaggedMallocCompressionBuffer, _OBJC_METACLASS_$_SGTaggedMallocEmailHtml, _OBJC_METACLASS_$_SGTaggedMallocLevenshteinDistanceBuffer, _OBJC_METACLASS_$_SGTaggedMallocWorkQueueItemPart, _OBJC_METACLASS_$_SGTextFeaturization, _OBJC_METACLASS_$_SGTextFeaturizationLabelTransformer, _OBJC_METACLASS_$_SGTextFeaturizationVectorTransformer, _OBJC_METACLASS_$_SGTextMessage, _OBJC_METACLASS_$_SGTextMessageConversationTracker, _OBJC_METACLASS_$_SGTextMessageItem, _OBJC_METACLASS_$_SGTextMessageKey, _OBJC_METACLASS_$_SGThirdPersonAddressSharingModel, _OBJC_METACLASS_$_SGThirdPersonEmailSharingModel, _OBJC_METACLASS_$_SGThirdPersonPhoneSharingModel, _OBJC_METACLASS_$_SGThreadParser, _OBJC_METACLASS_$_SGTokenDistanceMappingTransformer, _OBJC_METACLASS_$_SGTokenString, _OBJC_METACLASS_$_SGTokenizer, _OBJC_METACLASS_$_SGTokenizerMappingTransformer, _OBJC_METACLASS_$_SGTransformerInstance, _OBJC_METACLASS_$_SGUnrecognizedContactKey, _OBJC_METACLASS_$_SGWebPageKey, _OBJC_METACLASS_$_SGWords, _OBJC_METACLASS_$_SGXPCActivityManager, _OBJC_METACLASS_$_SGXpcTransaction, _OBJC_METACLASS_$__SGDCloudKitSyncPersistedState, _SGBytesToHex, _SGCleavePhoneNumberAndExtension, _SGCollapseWhitespaceAndStrip, _SGContactDetailTypeDescription, _SGContactDetailTypeToEntityTypes, _SGConvertUtf8ByteOffsetsToUtf16WordOffsets, _SGDBatteryMonitoringStart, _SGDCKEventReadFrom, _SGDCKLocationReadFrom, _SGDCKTimeRangeReadFrom, _SGDExit, _SGDIsConnectedToPower, _SGDSuggestManagerErrorDomain, _SGDWorkQueuePriorityDescription, _SGDataDetectorsCreateScannerOrFail, _SGDataDetectorsGetDate, _SGDataDetectorsGetDateAndTimeZoneWithLocale, _SGDataDetectorsGetDateWithLocale, _SGDataDetectorsGetIntervalDatesAndTimeZoneWithLocale, _SGDataDetectorsGetMatchType, _SGDataDetectorsGetType, _SGDataDetectorsScan, _SGDataDetectorsScanForPhone, _SGDataDetectorsScanForPhoneLessCarefully, _SGDataDetectorsScanRange, _SGDataDetectorsTypeToString, _SGDataNormalizationClearCaches, _SGDetectionNotabilityFeatureVecLog, _SGEntityTagsForStorage, _SGEntityTagsFromStorage, _SGEntityTypeToContactDetailType, _SGEnumerateBodyHeaderCandidates, _SGEnumerateReplyAttributionCandidates, _SGEnumerateSimpleLinesInString, _SGEnumerateSimpleLinesInUTF8Data, _SGFeatureVectorLog, _SGFeatureVectorParse, _SGFeatureVectorSerialize, _SGFeatureVectorSize, _SGFullwidthLatinToHalfwidth, _SGGetNameCharacterSet, _SGGetNounsAndNames, _SGGetQuotationMarkCharacterSet, _SGGuessNamingTradition, _SGHexToBytes, _SGInhumanityFeatureVecLog, _SGIsAllDigits, _SGIsAllUppercase, _SGIsPhoneNumberWithRangeBlacklisted, _SGJSWatchdogTimerMakeVMWithTimeout, _SGJoinStrings, _SGKeepOnlyCharacterSet, _SGLanguageForLocaleIdentiferLanguage, _SGLooksLikeNumber, _SGMachTimeToNanoseconds, _SGMailAttachmentMimeTypeCalendar, _SGMailAttachmentMimeTypeVcard, _SGMemoryHeavyOperation, _SGMurmurhashString, _SGNamesAsciify, _SGNamesIsMostlyAlpha, _SGNamesOnlyNameChars, _SGNormalizeAddress, _SGNormalizeCNAddress, _SGNormalizeEmailAddress, _SGNormalizeInstantMessageAddress, _SGNormalizeName, _SGNormalizePhoneNumber, _SGNormalizePhoneNumberCached, _SGNormalizeSocialProfile, _SGNormalizeUnicodeString, _SGNormalizeUnicodeStringMinimally, _SGNotUserInitiated, _SGPhoneNumberMatchInSet, _SGPostalAddressParse, _SGPostalAddressParsedCompare, _SGPostalAddressUnparse, _SGPostalAddressesMatch, _SGPostalAddressesMatchWithParsed, _SGPreferChineseNamesForTesting, _SGPreferJapaneseNamesForTesting, _SGPrettifyPhoneNumber, _SGPseudoContactsDomainIdentifier, _SGRandomDataOfLength, _SGRe2KeepGoing, _SGRe2Stop, _SGRealtimeContactConfidenceFeatureVecLog, _SGRecordMeasurementState, _SGRemoveCharacterSet, _SGRemoveSomePunctuation, _SGRemoveWhitespace, _SGRepairString, _SGResetPreferredNameTraditionForTesting, _SGScalesRecordTime, _SGSetOverrideCountryCodeForPhoneNumberNormalization, _SGSha256BytesForString, _SGSha256BytesForStrings, _SGSha256Data, _SGSha256ForString, _SGSha256ForStrings, _SGSha256HMACData, _SGSimpleICUClearCache, _SGSimpleICUTransform, _SGSqliteDatabaseErrorDomain, _SGSqliteDatabaseErrorKeyCode, _SGSqliteDatabaseErrorKeyQuery, _SGSqliteDatabaseErrorKeyReason, _SGSqliteDatabaseKeepGoing, _SGSqliteDatabaseStop, _SGStripQuotationMarks, _SGTrimTrailingWhitespace, _SGTryToConvertPhoneNumberToASCII, _SGUtfNCursorAdvance, _SGUtfNCursorInit, __SGTaggedCalloc_impl, __SGTaggedFree_impl, __SGTaggedMallocAddTag_impl, __SGTaggedMallocTagSize_impl, __SGTaggedMalloc_impl, __SGTaggedTypeAssert_impl, __SGTaggedVMAlloc_impl, __ZN3re210PCREWalker9PostVisitEPNS_6RegexpEbbPbi, __ZN3re210chartoruneEPiPKc, __ZN3re210runetocharEPcPKi, __ZN3re211FilteredRE214PrintPrefilterEi, __ZN3re211FilteredRE219RegexpsGivenStringsERKNSt3__16vectorIiNS1_9allocatorIiEEEEPS5_, __ZN3re211FilteredRE23AddERKNS_11StringPieceERKNS_3RE27OptionsEPi, __ZN3re211FilteredRE27CompileEPNSt3__16vectorINS1_12basic_stringIcNS1_11char_traitsIcEENS1_9allocatorIcEEEENS6_IS8_EEEE, __ZN3re211FilteredRE2C1Ev, __ZN3re211FilteredRE2C2Ev, __ZN3re211FilteredRE2D1Ev, __ZN3re211FilteredRE2D2Ev, __ZN3re211StringPiece4nposE, __ZN3re211StringPiece6_equalERKS0_S2_, __ZN3re211perl_groupsE, __ZN3re212RegexpStatus4CopyERKS0_, __ZN3re212RegexpStatus8CodeTextENS_16RegexpStatusCodeE, __ZN3re212StringPrintfEPKcz, __ZN3re212posix_groupsE, __ZN3re213CEscapeStringEPKciPci, __ZN3re213CycleFoldRuneEi, __ZN3re213PrefilterTree13CanonicalNodeEPNS_9PrefilterE, __ZN3re213PrefilterTree14PrintDebugInfoEv, __ZN3re213PrefilterTree14PrintPrefilterEi, __ZN3re213PrefilterTree15AssignUniqueIdsEPNSt3__16vectorINS1_12basic_stringIcNS1_11char_traitsIcEENS1_9allocatorIcEEEENS6_IS8_EEEE, __ZN3re213PrefilterTree3AddEPNS_9PrefilterE, __ZN3re213PrefilterTree7CompileEPNSt3__16vectorINS1_12basic_stringIcNS1_11char_traitsIcEENS1_9allocatorIcEEEENS6_IS8_EEEE, __ZN3re213PrefilterTreeC1Ev, __ZN3re213PrefilterTreeC2Ev, __ZN3re213PrefilterTreeD1Ev, __ZN3re213PrefilterTreeD2Ev, __ZN3re213SStringPrintfEPNSt3__112basic_stringIcNS0_11char_traitsIcEENS0_9allocatorIcEEEEPKcz, __ZN3re213StringAppendFEPNSt3__112basic_stringIcNS0_11char_traitsIcEENS0_9allocatorIcEEEEPKcz, __ZN3re214LookupCaseFoldEPKNS_8CaseFoldEii, __ZN3re214OnePass_ChecksEv, __ZN3re214SimplifyWalker10ShortVisitEPNS_6RegexpES2_, __ZN3re214SimplifyWalker14SimplifyRepeatEPNS_6RegexpEiiNS1_10ParseFlagsE, __ZN3re214SimplifyWalker17SimplifyCharClassEPNS_6RegexpE, __ZN3re214SimplifyWalker4CopyEPNS_6RegexpE, __ZN3re214SimplifyWalker7Concat2EPNS_6RegexpES2_NS1_10ParseFlagsE, __ZN3re214SimplifyWalker8PreVisitEPNS_6RegexpES2_Pb, __ZN3re214SimplifyWalker9PostVisitEPNS_6RegexpES2_S2_PS2_i, __ZN3re214ToStringWalker8PreVisitEPNS_6RegexpEiPb, __ZN3re214ToStringWalker9PostVisitEPNS_6RegexpEiiPii, __ZN3re214unicode_groupsE, __ZN3re215FLAGS_trace_re2E, __ZN3re215PrefixSuccessorERKNS_11StringPieceE, __ZN3re215num_perl_groupsE, __ZN3re215unicode_tolowerE, __ZN3re216CharClassBuilder10FoldsASCIIEv, __ZN3re216CharClassBuilder11RemoveAboveEi, __ZN3re216CharClassBuilder12AddCharClassEPS0_, __ZN3re216CharClassBuilder12GetCharClassEv, __ZN3re216CharClassBuilder13AddRangeFlagsEiiNS_6Regexp10ParseFlagsE, __ZN3re216CharClassBuilder4CopyEv, __ZN3re216CharClassBuilder6NegateEv, __ZN3re216CharClassBuilder8AddRangeEii, __ZN3re216CharClassBuilder8ContainsEi, __ZN3re216CharClassBuilderC1Ev, __ZN3re216CharClassBuilderC2Ev, __ZN3re216num_posix_groupsE, __ZN3re216unicode_casefoldE, __ZN3re217EmptyStringWalker9PostVisitEPNS_6RegexpEbbPbi, __ZN3re217ParseUnicodeGroupEPNS_11StringPieceENS_6Regexp10ParseFlagsEPNS_16CharClassBuilderEPNS_12RegexpStatusE, __ZN3re217RunningOnValgrindEv, __ZN3re218num_unicode_groupsE, __ZN3re219ConvertLatin1ToUTF8ERKNS_11StringPieceEPNSt3__112basic_stringIcNS3_11char_traitsIcEENS3_9allocatorIcEEEE, __ZN3re219num_unicode_tolowerE, __ZN3re220num_unicode_casefoldE, __ZN3re222MaybeParsePerlCCEscapeEPNS_11StringPieceENS_6Regexp10ParseFlagsE, __ZN3re228FLAGS_re2_dfa_bail_when_slowE, __ZN3re231FLAGS_filtered_re2_min_atom_lenE, __ZN3re23DFA10AddToQueueEPNS0_5WorkqEij, __ZN3re23DFA10ClearCacheEv, __ZN3re23DFA10ResetCacheEPNS0_8RWLockerE, __ZN3re23DFA10StateSaver7RestoreEv, __ZN3re23DFA10StateSaverC1EPS0_PNS0_5StateE, __ZN3re23DFA10StateSaverC2EPS0_PNS0_5StateE, __ZN3re23DFA10StateSaverD1Ev, __ZN3re23DFA10StateSaverD2Ev, __ZN3re23DFA11CachedStateEPiij, __ZN3re23DFA12StateToWorkqEPNS0_5StateEPNS0_5WorkqE, __ZN3re23DFA13AnalyzeSearchEPNS0_12SearchParamsE, __ZN3re23DFA14BuildAllStatesEv, __ZN3re23DFA14FastSearchLoopEPNS0_12SearchParamsE, __ZN3re23DFA14RunStateOnByteEPNS0_5StateEi, __ZN3re23DFA14RunWorkqOnByteEPNS0_5WorkqES2_ijPbNS_4Prog9MatchKindEi, __ZN3re23DFA14SlowSearchLoopEPNS0_12SearchParamsE, __ZN3re23DFA18PossibleMatchRangeEPNSt3__112basic_stringIcNS1_11char_traitsIcEENS1_9allocatorIcEEEES8_i, __ZN3re23DFA18WorkqToCachedStateEPNS0_5WorkqEj, __ZN3re23DFA19AnalyzeSearchHelperEPNS0_12SearchParamsEPNS0_9StartInfoEj, __ZN3re23DFA21RunWorkqOnEmptyStringEPNS0_5WorkqES2_j, __ZN3re23DFA22RunStateOnByteUnlockedEPNS0_5StateEi, __ZN3re23DFA6SearchERKNS_11StringPieceES3_bbbPbPPKcPNSt3__16vectorIiNS8_9allocatorIiEEEE, __ZN3re23DFA8RWLocker14LockForWritingEv, __ZN3re23DFA8RWLockerC1EPNS_5MutexE, __ZN3re23DFA8RWLockerC2EPNS_5MutexE, __ZN3re23DFA8RWLockerD1Ev, __ZN3re23DFA8RWLockerD2Ev, __ZN3re23DFA9DumpStateEPNS0_5StateE, __ZN3re23DFA9DumpWorkqEPNS0_5WorkqE, __ZN3re23DFA9SearchFFFEPNS0_12SearchParamsE, __ZN3re23DFA9SearchFFTEPNS0_12SearchParamsE, __ZN3re23DFA9SearchFTFEPNS0_12SearchParamsE, __ZN3re23DFA9SearchFTTEPNS0_12SearchParamsE, __ZN3re23DFA9SearchTFFEPNS0_12SearchParamsE, __ZN3re23DFA9SearchTFTEPNS0_12SearchParamsE, __ZN3re23DFA9SearchTTFEPNS0_12SearchParamsE, __ZN3re23DFA9SearchTTTEPNS0_12SearchParamsE, __ZN3re23DFAC1EPNS_4ProgENS1_9MatchKindEx, __ZN3re23DFAC2EPNS_4ProgENS1_9MatchKindEx, __ZN3re23DFAD1Ev, __ZN3re23DFAD2Ev, __ZN3re23NFA12AddToThreadqEPNS_11SparseArrayIPNS0_6ThreadEEEiiPKcPS7_, __ZN3re23NFA13FormatCaptureEPPKc, __ZN3re23NFA16ComputeFirstByteEv, __ZN3re23NFA6SearchERKNS_11StringPieceES3_bbPS1_i, __ZN3re23NFAC1EPNS_4ProgE, __ZN3re23NFAC2EPNS_4ProgE, __ZN3re23NFAD1Ev, __ZN3re23NFAD2Ev, __ZN3re23RE210FullMatchNERKNS_11StringPieceERKS0_PKPKNS0_3ArgEi, __ZN3re23RE211MaxSubmatchERKNS_11StringPieceE, __ZN3re23RE212PartialMatchE, __ZN3re23RE213GlobalReplaceEPNSt3__112basic_stringIcNS1_11char_traitsIcEENS1_9allocatorIcEEEERKS0_RKNS_11StringPieceE, __ZN3re23RE213PartialMatchNERKNS_11StringPieceERKS0_PKPKNS0_3ArgEi, __ZN3re23RE214FindAndConsumeE, __ZN3re23RE215FindAndConsumeNEPNS_11StringPieceERKS0_PKPKNS0_3ArgEi, __ZN3re23RE23Arg10parse_charEPKciPv, __ZN3re23RE23Arg10parse_longEPKciPv, __ZN3re23RE23Arg10parse_nullEPKciPv, __ZN3re23RE23Arg10parse_uintEPKciPv, __ZN3re23RE23Arg11parse_floatEPKciPv, __ZN3re23RE23Arg11parse_shortEPKciPv, __ZN3re23RE23Arg11parse_ucharEPKciPv, __ZN3re23RE23Arg11parse_ulongEPKciPv, __ZN3re23RE23Arg12parse_doubleEPKciPv, __ZN3re23RE23Arg12parse_stringEPKciPv, __ZN3re23RE23Arg12parse_ushortEPKciPv, __ZN3re23RE23Arg13parse_int_hexEPKciPv, __ZN3re23RE23Arg14parse_long_hexEPKciPv, __ZN3re23RE23Arg14parse_longlongEPKciPv, __ZN3re23RE23Arg14parse_uint_hexEPKciPv, __ZN3re23RE23Arg15parse_int_octalEPKciPv, __ZN3re23RE23Arg15parse_int_radixEPKciPvi, __ZN3re23RE23Arg15parse_short_hexEPKciPv, __ZN3re23RE23Arg15parse_ulong_hexEPKciPv, __ZN3re23RE23Arg15parse_ulonglongEPKciPv, __ZN3re23RE23Arg16parse_int_cradixEPKciPv, __ZN3re23RE23Arg16parse_long_octalEPKciPv, __ZN3re23RE23Arg16parse_long_radixEPKciPvi, __ZN3re23RE23Arg16parse_uint_octalEPKciPv, __ZN3re23RE23Arg16parse_uint_radixEPKciPvi, __ZN3re23RE23Arg16parse_ushort_hexEPKciPv, __ZN3re23RE23Arg17parse_long_cradixEPKciPv, __ZN3re23RE23Arg17parse_short_octalEPKciPv, __ZN3re23RE23Arg17parse_short_radixEPKciPvi, __ZN3re23RE23Arg17parse_stringpieceEPKciPv, __ZN3re23RE23Arg17parse_uint_cradixEPKciPv, __ZN3re23RE23Arg17parse_ulong_octalEPKciPv, __ZN3re23RE23Arg17parse_ulong_radixEPKciPvi, __ZN3re23RE23Arg18parse_longlong_hexEPKciPv, __ZN3re23RE23Arg18parse_short_cradixEPKciPv, __ZN3re23RE23Arg18parse_ulong_cradixEPKciPv, __ZN3re23RE23Arg18parse_ushort_octalEPKciPv, __ZN3re23RE23Arg18parse_ushort_radixEPKciPvi, __ZN3re23RE23Arg19parse_ulonglong_hexEPKciPv, __ZN3re23RE23Arg19parse_ushort_cradixEPKciPv, __ZN3re23RE23Arg20parse_longlong_octalEPKciPv, __ZN3re23RE23Arg20parse_longlong_radixEPKciPvi, __ZN3re23RE23Arg21parse_longlong_cradixEPKciPv, __ZN3re23RE23Arg21parse_ulonglong_octalEPKciPv, __ZN3re23RE23Arg21parse_ulonglong_radixEPKciPvi, __ZN3re23RE23Arg22parse_ulonglong_cradixEPKciPv, __ZN3re23RE23Arg9parse_intEPKciPv, __ZN3re23RE23Set3AddERKNS_11StringPieceEPNSt3__112basic_stringIcNS5_11char_traitsIcEENS5_9allocatorIcEEEE, __ZN3re23RE23Set7CompileEv, __ZN3re23RE23SetC1ERKNS0_7OptionsENS0_6AnchorE, __ZN3re23RE23SetC2ERKNS0_7OptionsENS0_6AnchorE, __ZN3re23RE23SetD1Ev, __ZN3re23RE23SetD2Ev, __ZN3re23RE24InitERKNS_11StringPieceERKNS0_7OptionsE, __ZN3re23RE27ConsumeE, __ZN3re23RE27ExtractERKNS_11StringPieceERKS0_S3_PNSt3__112basic_stringIcNS6_11char_traitsIcEENS6_9allocatorIcEEEE, __ZN3re23RE27Options14kDefaultMaxMemE, __ZN3re23RE27OptionsC1ENS0_13CannedOptionsE, __ZN3re23RE27OptionsC2ENS0_13CannedOptionsE, __ZN3re23RE27ReplaceEPNSt3__112basic_stringIcNS1_11char_traitsIcEENS1_9allocatorIcEEEERKS0_RKNS_11StringPieceE, __ZN3re23RE28ConsumeNEPNS_11StringPieceERKS0_PKPKNS0_3ArgEi, __ZN3re23RE29FullMatchE, __ZN3re23RE29QuoteMetaERKNS_11StringPieceE, __ZN3re23RE2C1EPKc, __ZN3re23RE2C1ERKNS_11StringPieceE, __ZN3re23RE2C1ERKNS_11StringPieceERKNS0_7OptionsE, __ZN3re23RE2C1ERKNSt3__112basic_stringIcNS1_11char_traitsIcEENS1_9allocatorIcEEEE, __ZN3re23RE2C2EPKc, __ZN3re23RE2C2ERKNS_11StringPieceE, __ZN3re23RE2C2ERKNS_11StringPieceERKNS0_7OptionsE, __ZN3re23RE2C2ERKNSt3__112basic_stringIcNS1_11char_traitsIcEENS1_9allocatorIcEEEE, __ZN3re23RE2D1Ev, __ZN3re23RE2D2Ev, __ZN3re24Prog10CompileSetERKNS_3RE27OptionsENS1_6AnchorEPNS_6RegexpE, __ZN3re24Prog10EmptyFlagsERKNS_11StringPieceEPKc, __ZN3re24Prog13MarkByteRangeEii, __ZN3re24Prog13SearchOnePassERKNS_11StringPieceES3_NS0_6AnchorENS0_9MatchKindEPS1_i, __ZN3re24Prog14BuildEntireDFAENS0_9MatchKindE, __ZN3re24Prog14ComputeByteMapEv, __ZN3re24Prog14DumpUnanchoredEv, __ZN3re24Prog14SearchBitStateERKNS_11StringPieceES3_NS0_6AnchorENS0_9MatchKindEPS1_i, __ZN3re24Prog18PossibleMatchRangeEPNSt3__112basic_stringIcNS1_11char_traitsIcEENS1_9allocatorIcEEEES8_i, __ZN3re24Prog4DumpEv, __ZN3re24Prog4Inst11InitCaptureEij, __ZN3re24Prog4Inst13InitByteRangeEiiij, __ZN3re24Prog4Inst14InitEmptyWidthENS_7EmptyOpEj, __ZN3re24Prog4Inst4DumpEv, __ZN3re24Prog4Inst7InitAltEjj, __ZN3re24Prog4Inst7InitNopEj, __ZN3re24Prog4Inst8InitFailEv, __ZN3re24Prog4Inst9InitMatchEi, __ZN3re24Prog6GetDFAENS0_9MatchKindE, __ZN3re24Prog8OptimizeEv, __ZN3re24Prog9IsOnePassEv, __ZN3re24Prog9SearchDFAERKNS_11StringPieceES3_NS0_6AnchorENS0_9MatchKindEPS1_PbPNSt3__16vectorIiNS8_9allocatorIiEEEE, __ZN3re24Prog9SearchNFAERKNS_11StringPieceES3_NS0_6AnchorENS0_9MatchKindEPS1_i, __ZN3re24ProgC1Ev, __ZN3re24ProgC2Ev, __ZN3re24ProgD1Ev, __ZN3re24ProgD2Ev, __ZN3re26Regexp10MimicsPCREEv, __ZN3re26Regexp10NewLiteralEiNS0_10ParseFlagsE, __ZN3re26Regexp10ParseState10DoCollapseENS_8RegexpOpE, __ZN3re26Regexp10ParseState10PushDollarEv, __ZN3re26Regexp10ParseState10PushRegexpEPS0_, __ZN3re26Regexp10ParseState11DoLeftParenERKNS_11StringPieceE, __ZN3re26Regexp10ParseState11PushLiteralEi, __ZN3re26Regexp10ParseState12DoRightParenEv, __ZN3re26Regexp10ParseState12FinishRegexpEPS0_, __ZN3re26Regexp10ParseState12ParseCCRangeEPNS_11StringPieceEPNS_9RuneRangeERKS2_PNS_12RegexpStatusE, __ZN3re26Regexp10ParseState12PushRepeatOpENS_8RegexpOpERKNS_11StringPieceEb, __ZN3re26Regexp10ParseState12PushSimpleOpENS_8RegexpOpE, __ZN3re26Regexp10ParseState13DoAlternationEv, __ZN3re26Regexp10ParseState13DoVerticalBarEv, __ZN3re26Regexp10ParseState14ParseCharClassEPNS_11StringPieceEPPS0_PNS_12RegexpStatusE, __ZN3re26Regexp10ParseState14ParsePerlFlagsEPNS_11StringPieceE, __ZN3re26Regexp10ParseState14PushRepetitionEiiRKNS_11StringPieceEb, __ZN3re26Regexp10ParseState15DoConcatenationEv, __ZN3re26Regexp10ParseState16ParseCCCharacterEPNS_11StringPieceEPiRKS2_PNS_12RegexpStatusE, __ZN3re26Regexp10ParseState16PushWordBoundaryEb, __ZN3re26Regexp10ParseState17MaybeConcatStringEiNS0_10ParseFlagsE, __ZN3re26Regexp10ParseState20DoLeftParenNoCaptureEv, __ZN3re26Regexp10ParseState7PushDotEv, __ZN3re26Regexp10ParseState8DoFinishEv, __ZN3re26Regexp10ParseState8IsMarkerENS_8RegexpOpE, __ZN3re26Regexp10ParseState9PushCaratEv, __ZN3re26Regexp10ParseStateC1ENS0_10ParseFlagsERKNS_11StringPieceEPNS_12RegexpStatusE, __ZN3re26Regexp10ParseStateC2ENS0_10ParseFlagsERKNS_11StringPieceEPNS_12RegexpStatusE, __ZN3re26Regexp10ParseStateD1Ev, __ZN3re26Regexp10ParseStateD2Ev, __ZN3re26Regexp11NumCapturesEv, __ZN3re26Regexp12CaptureNamesEv, __ZN3re26Regexp12NewCharClassEPNS_9CharClassENS0_10ParseFlagsE, __ZN3re26Regexp12QuickDestroyEv, __ZN3re26Regexp13CompileToProgEx, __ZN3re26Regexp13ComputeSimpleEv, __ZN3re26Regexp13LeadingRegexpEPS0_, __ZN3re26Regexp13LeadingStringEPS0_PiPNS0_10ParseFlagsE, __ZN3re26Regexp13LiteralStringEPiiNS0_10ParseFlagsE, __ZN3re26Regexp13NamedCapturesEv, __ZN3re26Regexp14RequiredPrefixEPNSt3__112basic_stringIcNS1_11char_traitsIcEENS1_9allocatorIcEEEEPbPPS0_, __ZN3re26Regexp14SimplifyRegexpERKNS_11StringPieceENS0_10ParseFlagsEPNSt3__112basic_stringIcNS5_11char_traitsIcEENS5_9allocatorIcEEEEPNS_12RegexpStatusE, __ZN3re26Regexp15AddRuneToStringEi, __ZN3re26Regexp17AlternateNoFactorEPPS0_iNS0_10ParseFlagsE, __ZN3re26Regexp17ConcatOrAlternateENS_8RegexpOpEPPS0_iNS0_10ParseFlagsEb, __ZN3re26Regexp17FactorAlternationEPPS0_iNS0_10ParseFlagsE, __ZN3re26Regexp19RemoveLeadingRegexpEPS0_, __ZN3re26Regexp19RemoveLeadingStringEPS0_i, __ZN3re26Regexp20CompileToReverseProgEx, __ZN3re26Regexp26FactorAlternationRecursiveEPPS0_iNS0_10ParseFlagsEi, __ZN3re26Regexp3RefEv, __ZN3re26Regexp4PlusEPS0_NS0_10ParseFlagsE, __ZN3re26Regexp4StarEPS0_NS0_10ParseFlagsE, __ZN3re26Regexp4SwapEPS0_, __ZN3re26Regexp5EqualEPS0_S1_, __ZN3re26Regexp5ParseERKNS_11StringPieceENS0_10ParseFlagsEPNS_12RegexpStatusE, __ZN3re26Regexp5QuestEPS0_NS0_10ParseFlagsE, __ZN3re26Regexp6ConcatEPPS0_iNS0_10ParseFlagsE, __ZN3re26Regexp6DecrefEv, __ZN3re26Regexp6IncrefEv, __ZN3re26Regexp6RepeatEPS0_NS0_10ParseFlagsEii, __ZN3re26Regexp7CaptureEPS0_NS0_10ParseFlagsEi, __ZN3re26Regexp7DestroyEv, __ZN3re26Regexp8SimplifyEv, __ZN3re26Regexp8ToStringEv, __ZN3re26Regexp9AlternateEPPS0_iNS0_10ParseFlagsE, __ZN3re26Regexp9HaveMatchEiNS0_10ParseFlagsE, __ZN3re26RegexpC1ENS_8RegexpOpENS0_10ParseFlagsE, __ZN3re26RegexpC2ENS_8RegexpOpENS0_10ParseFlagsE, __ZN3re26RegexpD1Ev, __ZN3re26RegexpD2Ev, __ZN3re26RegexpdlEPv, __ZN3re26RegexpnwEm, __ZN3re26utflenEPKc, __ZN3re27CEscapeERKNS_11StringPieceE, __ZN3re27runelenEi, __ZN3re27utfruneEPKci, __ZN3re28BitState4PushEiPKci, __ZN3re28BitState6SearchERKNS_11StringPieceES3_bbPS1_i, __ZN3re28BitState9GrowStackEv, __ZN3re28BitState9TrySearchEiPKc, __ZN3re28BitStateC1EPNS_4ProgE, __ZN3re28BitStateC2EPNS_4ProgE, __ZN3re28BitStateD1Ev, __ZN3re28BitStateD2Ev, __ZN3re28Compiler10BeginRangeEv, __ZN3re28Compiler10CompileSetERKNS_3RE27OptionsENS1_6AnchorEPNS_6RegexpE, __ZN3re28Compiler10EmptyWidthENS_7EmptyOpE, __ZN3re28Compiler10ShortVisitEPNS_6RegexpENS_4FragE, __ZN3re28Compiler12AddRuneRangeEiib, __ZN3re28Compiler13Add_80_10ffffEv, __ZN3re28Compiler14RuneByteSuffixEhhbi, __ZN3re28Compiler16AddRuneRangeUTF8Eiib, __ZN3re28Compiler18AddRuneRangeLatin1Eiib, __ZN3re28Compiler22UncachedRuneByteSuffixEhhbi, __ZN3re28Compiler3AltENS_4FragES1_, __ZN3re28Compiler3CatENS_4FragES1_, __ZN3re28Compiler3NopEv, __ZN3re28Compiler4CopyENS_4FragE, __ZN3re28Compiler4PlusENS_4FragEb, __ZN3re28Compiler4StarENS_4FragEb, __ZN3re28Compiler4TrimEv, __ZN3re28Compiler5MatchEi, __ZN3re28Compiler5QuestENS_4FragEb, __ZN3re28Compiler5SetupENS_6Regexp10ParseFlagsExNS_3RE26AnchorE, __ZN3re28Compiler6FinishEv, __ZN3re28Compiler7CaptureENS_4FragEi, __ZN3re28Compiler7CompileEPNS_6RegexpEbx, __ZN3re28Compiler7DotStarEv, __ZN3re28Compiler7LiteralEib, __ZN3re28Compiler7NoMatchEv, __ZN3re28Compiler8EndRangeEv, __ZN3re28Compiler8PreVisitEPNS_6RegexpENS_4FragEPb, __ZN3re28Compiler9AddSuffixEi, __ZN3re28Compiler9AllocInstEi, __ZN3re28Compiler9ByteRangeEiib, __ZN3re28Compiler9PostVisitEPNS_6RegexpENS_4FragES3_PS3_i, __ZN3re28CompilerC1Ev, __ZN3re28CompilerC2Ev, __ZN3re28CompilerD0Ev, __ZN3re28CompilerD1Ev, __ZN3re28CompilerD2Ev, __ZN3re28fullruneEPKci, __ZN3re28hashwordEPKjmj, __ZN3re29ApplyFoldEPKNS_8CaseFoldEi, __ZN3re29CharClass3NewEi, __ZN3re29CharClass6DeleteEv, __ZN3re29CharClass6NegateEv, __ZN3re29CharClass8ContainsEi, __ZN3re29PatchList2MkEj, __ZN3re29PatchList5DerefEPNS_4Prog4InstES0_, __ZN3re29PatchList5PatchEPNS_4Prog4InstES0_j, __ZN3re29PatchList6AppendEPNS_4Prog4InstES0_S0_, __ZN3re29Prefilter10FromRegexpEPNS_6RegexpE, __ZN3re29Prefilter10FromStringERKNSt3__112basic_stringIcNS1_11char_traitsIcEENS1_9allocatorIcEEEE, __ZN3re29Prefilter2OrEPS0_S1_, __ZN3re29Prefilter3AndEPS0_S1_, __ZN3re29Prefilter4Info11EmptyStringEv, __ZN3re29Prefilter4Info13LiteralLatin1Ei, __ZN3re29Prefilter4Info3AltEPS1_S2_, __ZN3re29Prefilter4Info3AndEPS1_S2_, __ZN3re29Prefilter4Info4PlusEPS1_, __ZN3re29Prefilter4Info4StarEPS1_, __ZN3re29Prefilter4Info5QuestEPS1_, __ZN3re29Prefilter4Info6CClassEPNS_9CharClassEb, __ZN3re29Prefilter4Info6ConcatEPS1_S2_, __ZN3re29Prefilter4Info6Walker10ShortVisitEPNS_6RegexpEPS1_, __ZN3re29Prefilter4Info6Walker9PostVisitEPNS_6RegexpEPS1_S5_PS5_i, __ZN3re29Prefilter4Info7AnyCharEv, __ZN3re29Prefilter4Info7LiteralEi, __ZN3re29Prefilter4Info7NoMatchEv, __ZN3re29Prefilter4Info8AnyMatchEv, __ZN3re29Prefilter4Info8ToStringEv, __ZN3re29Prefilter4Info9TakeMatchEv, __ZN3re29Prefilter4InfoC1Ev, __ZN3re29Prefilter4InfoC2Ev, __ZN3re29Prefilter4InfoD1Ev, __ZN3re29Prefilter4InfoD2Ev, __ZN3re29Prefilter5AndOrENS0_2OpEPS0_S2_, __ZN3re29Prefilter7FromRE2EPKNS_3RE2E, __ZN3re29Prefilter8SimplifyEv, __ZN3re29Prefilter9BuildInfoEPNS_6RegexpE, __ZN3re29Prefilter9OrStringsEPNSt3__13setINS1_12basic_stringIcNS1_11char_traitsIcEENS1_9allocatorIcEEEENS1_4lessIS8_EENS6_IS8_EEEE, __ZN3re29PrefilterC1ENS0_2OpE, __ZN3re29PrefilterC2ENS0_2OpE, __ZN3re29PrefilterD1Ev, __ZN3re29PrefilterD2Ev, __ZN3re29hashword2EPKjmPjS2_, __ZNK3re211FilteredRE210AllMatchesERKNS_11StringPieceERKNSt3__16vectorIiNS4_9allocatorIiEEEEPS8_, __ZNK3re211FilteredRE210FirstMatchERKNS_11StringPieceERKNSt3__16vectorIiNS4_9allocatorIiEEEE, __ZNK3re211FilteredRE214SlowFirstMatchERKNS_11StringPieceE, __ZNK3re211StringPiece12CopyToStringEPNSt3__112basic_stringIcNS1_11char_traitsIcEENS1_9allocatorIcEEEE, __ZNK3re211StringPiece4copyEPcmm, __ZNK3re211StringPiece4findERKS0_m, __ZNK3re211StringPiece4findEcm, __ZNK3re211StringPiece5rfindERKS0_m, __ZNK3re211StringPiece5rfindEcm, __ZNK3re211StringPiece6substrEmm, __ZNK3re212RegexpStatus4TextEv, __ZNK3re213PrefilterTree10NodeStringEPNS_9PrefilterE, __ZNK3re213PrefilterTree14PropagateMatchERKNSt3__16vectorIiNS1_9allocatorIiEEEEPNS_11SparseArrayIiEE, __ZNK3re213PrefilterTree15DebugNodeStringEPNS_9PrefilterE, __ZNK3re213PrefilterTree19RegexpsGivenStringsERKNSt3__16vectorIiNS1_9allocatorIiEEEEPS5_, __ZNK3re23RE211ProgramSizeEv, __ZNK3re23RE211ReverseProgEv, __ZNK3re23RE218CheckRewriteStringERKNS_11StringPieceEPNSt3__112basic_stringIcNS4_11char_traitsIcEENS4_9allocatorIcEEEE, __ZNK3re23RE218PossibleMatchRangeEPNSt3__112basic_stringIcNS1_11char_traitsIcEENS1_9allocatorIcEEEES8_i, __ZNK3re23RE219CapturingGroupNamesEv, __ZNK3re23RE220NamedCapturingGroupsEv, __ZNK3re23RE223NumberOfCapturingGroupsEv, __ZNK3re23RE23Set5MatchERKNS_11StringPieceEPNSt3__16vectorIiNS5_9allocatorIiEEEE, __ZNK3re23RE25MatchERKNS_11StringPieceEiiNS0_6AnchorEPS1_i, __ZNK3re23RE27DoMatchERKNS_11StringPieceENS0_6AnchorEPiPKPKNS0_3ArgEi, __ZNK3re23RE27Options10ParseFlagsEv, __ZNK3re23RE27RewriteEPNSt3__112basic_stringIcNS1_11char_traitsIcEENS1_9allocatorIcEEEERKNS_11StringPieceEPSA_i, __ZNK3re29Prefilter11DebugStringEv, __ZTIN3re210PCREWalkerE, __ZTIN3re214SimplifyWalkerE, __ZTIN3re214ToStringWalkerE, __ZTIN3re217EmptyStringWalkerE, __ZTIN3re28CompilerE, __ZTIN3re29Prefilter4Info6WalkerE, __ZTSN3re210PCREWalkerE, __ZTSN3re214SimplifyWalkerE, __ZTSN3re214ToStringWalkerE, __ZTSN3re217EmptyStringWalkerE, __ZTSN3re28CompilerE, __ZTSN3re29Prefilter4Info6WalkerE, __ZTVN3re210PCREWalkerE, __ZTVN3re214SimplifyWalkerE, __ZTVN3re214ToStringWalkerE, __ZTVN3re217EmptyStringWalkerE, __ZTVN3re28CompilerE, __ZTVN3re29Prefilter4Info6WalkerE, __ZlsRNSt3__113basic_ostreamIcNS_11char_traitsIcEEEERKN3re211StringPieceE, _addEdge, _descriptionForIdentityKeyType, _emailAddressDomain, _enumerateTokensInEmailAddress, _findConnectedComponents, _freeDisjointSet, _freeGraph, _freeRegexp, _globEscape, _h64, _initGraph, _kFtsPrefixMatchingAnything, _kHarvestQueueBadChecksumError, _kHarvestQueueBufferFullError, _kHarvestQueueFileOpenError, _kHarvestQueueFullError, _kHarvestQueueReadError, _kHarvestQueueUnsupportedError, _kHarvestQueueWriteError, _kSGAggregateLoggingKeyPrefix, _kSGBundleIdBlacklistAssetChangedNotification, _kSGCNContactMatchCacheIdentifier, _kSGCNContactMatchCacheNullCNContactIDPlaceholder, _kSGContactDetailTypeAddress, _kSGContactDetailTypeEmailAddress, _kSGContactDetailTypePhone, _kSGDBatteryStateChangedNotification, _kSGMailPatternsHeaderCc, _kSGMailPatternsHeaderDate, _kSGMailPatternsHeaderFrom, _kSGMailPatternsHeaderSubject, _kSGMailPatternsHeaderTo, _kSGOriginTypeCalendarEvent, _kSGOriginTypeContact, _kSGOriginTypeInstantMessage, _kSGOriginTypeMail, _kSGOriginTypeSocialProfile, _kSGOriginTypeUnrecognizedPhone, _kSGStatsKeyDissectedItems, _kSGStatsKeyEnqueuedItems, _kSafariReaderTextSourceString, _mallocRegexp, _migrationCompletedForPaths, _mincut, _newVertex, _plainTextToHtml, _printDot, _qmarksSeparatedByCommas, _sameConnectedComponent, _sketchWithInitialAndName, _sqlite3_bind_nscoding, _sqlite3_bind_nsdata, _sqlite3_bind_nsstring, _sqlite3_column_nsdata, _sqlite3_column_nssecurecoding, _sqlite3_column_nsstring, _tokenizeNameAfterWhitespaceNormalization, _updateConnectedComponents, _visitConnectedComponents ]
...
